65816: PC, mnemonic, operands, registers (A, X, Y, S, D, DB, flags (NVMXDIZC), V, H)
03ae  push af AF:50c0 BC:0000 DE:cd27 HL:680c SP:dfd7
03af  ld   a,($ffd0) AF:50c0 BC:0000 DE:cd27 HL:680c SP:dfd5
03b1  and  a,a AF:00c0 BC:0000 DE:cd27 HL:680c SP:dfd5
03b2  jr   z,$03df AF:00a0 BC:0000 DE:cd27 HL:680c SP:dfd5
03df  pop  af AF:00a0 BC:0000 DE:cd27 HL:680c SP:dfd5
03e0  reti AF:50c0 BC:0000 DE:cd27 HL:680c SP:dfd7
67fe  ld   (de),a AF:50c0 BC:0000 DE:cd27 HL:680c SP:dfd9
67ff  pop  de AF:50c0 BC:0000 DE:cd27 HL:680c SP:dfd9
6800  pop  bc AF:50c0 BC:0000 DE:cd26 HL:680c SP:dfdb
6801  ret AF:50c0 BC:0000 DE:cd26 HL:680c SP:dfdd
2f8c  ld   a,b AF:50c0 BC:0000 DE:cd26 HL:680c SP:dfdf
2f8d  ld   ($cd54),a AF:00c0 BC:0000 DE:cd26 HL:680c SP:dfdf
2f90  ld   a,c AF:00c0 BC:0000 DE:cd26 HL:680c SP:dfdf
2f91  ld   ($cd55),a AF:00c0 BC:0000 DE:cd26 HL:680c SP:dfdf
2f94  pop  bc AF:00c0 BC:0000 DE:cd26 HL:680c SP:dfdf
2f95  ld   a,b AF:00c0 BC:04c0 DE:cd26 HL:680c SP:dfe1
2f96  call $3286 AF:04c0 BC:04c0 DE:cd26 HL:680c SP:dfe1
3286  ld   ($ff98),a AF:04c0 BC:04c0 DE:cd26 HL:680c SP:dfdf
3288  ld   ($2000),a AF:04c0 BC:04c0 DE:cd26 HL:680c SP:dfdf
328b  ret AF:04c0 BC:04c0 DE:cd26 HL:680c SP:dfdf
2f99  ld   a,($cd54) AF:04c0 BC:04c0 DE:cd26 HL:680c SP:dfe1
2f9c  ld   b,a AF:00c0 BC:04c0 DE:cd26 HL:680c SP:dfe1
2f9d  ld   a,($cd55) AF:00c0 BC:00c0 DE:cd26 HL:680c SP:dfe1
2fa0  ld   c,a AF:00c0 BC:00c0 DE:cd26 HL:680c SP:dfe1
2fa1  ret AF:00c0 BC:0000 DE:cd26 HL:680c SP:dfe1
3a73  pop  bc AF:00c0 BC:0000 DE:cd26 HL:680c SP:dfe3
3a74  pop  hl AF:00c0 BC:0100 DE:cd26 HL:680c SP:dfe5
3a75  ret AF:00c0 BC:0100 DE:cd26 HL:d7f6 SP:dfe7
6590  ld   hl,$cd26 AF:00c0 BC:0100 DE:cd26 HL:d7f6 SP:dfe9
6593  ld   de,$cd11 AF:00c0 BC:0100 DE:cd26 HL:cd26 SP:dfe9
6596  ld   bc,$0006 AF:00c0 BC:0100 DE:cd11 HL:cd26 SP:dfe9
6599  call $32ce AF:00c0 BC:0006 DE:cd11 HL:cd26 SP:dfe9
32ce  ld   a,b AF:00c0 BC:0006 DE:cd11 HL:cd26 SP:dfe7
32cf  and  a,a AF:00c0 BC:0006 DE:cd11 HL:cd26 SP:dfe7
32d0  jr   z,$32de AF:00a0 BC:0006 DE:cd11 HL:cd26 SP:dfe7
32de  ldi  a,(hl) AF:00a0 BC:0006 DE:cd11 HL:cd26 SP:dfe7
03ae  push af AF:00a0 BC:0006 DE:cd11 HL:cd26 SP:dfe5
03af  ld   a,($ffd0) AF:00a0 BC:0006 DE:cd11 HL:cd26 SP:dfe3
03b1  and  a,a AF:00a0 BC:0006 DE:cd11 HL:cd26 SP:dfe3
03b2  jr   z,$03df AF:00a0 BC:0006 DE:cd11 HL:cd26 SP:dfe3
03df  pop  af AF:00a0 BC:0006 DE:cd11 HL:cd26 SP:dfe3
03e0  reti AF:00a0 BC:0006 DE:cd11 HL:cd26 SP:dfe5
32de  ldi  a,(hl) AF:00a0 BC:0006 DE:cd11 HL:cd26 SP:dfe7
32df  ld   (de),a AF:e6a0 BC:0006 DE:cd11 HL:cd27 SP:dfe7
32e0  inc  de AF:e6a0 BC:0006 DE:cd11 HL:cd27 SP:dfe7
32e1  dec  c AF:e6a0 BC:0006 DE:cd12 HL:cd27 SP:dfe7
32e2  jr   nz,$32de AF:e640 BC:0005 DE:cd12 HL:cd27 SP:dfe7
32de  ldi  a,(hl) AF:e640 BC:0005 DE:cd12 HL:cd27 SP:dfe7
32df  ld   (de),a AF:5040 BC:0005 DE:cd12 HL:cd28 SP:dfe7
32e0  inc  de AF:5040 BC:0005 DE:cd12 HL:cd28 SP:dfe7
32e1  dec  c AF:5040 BC:0005 DE:cd13 HL:cd28 SP:dfe7
32e2  jr   nz,$32de AF:5040 BC:0004 DE:cd13 HL:cd28 SP:dfe7
32de  ldi  a,(hl) AF:5040 BC:0004 DE:cd13 HL:cd28 SP:dfe7
32df  ld   (de),a AF:e640 BC:0004 DE:cd13 HL:cd29 SP:dfe7
32e0  inc  de AF:e640 BC:0004 DE:cd13 HL:cd29 SP:dfe7
32e1  dec  c AF:e640 BC:0004 DE:cd14 HL:cd29 SP:dfe7
32e2  jr   nz,$32de AF:e640 BC:0003 DE:cd14 HL:cd29 SP:dfe7
32de  ldi  a,(hl) AF:e640 BC:0003 DE:cd14 HL:cd29 SP:dfe7
32df  ld   (de),a AF:e640 BC:0003 DE:cd14 HL:cd2a SP:dfe7
32e0  inc  de AF:e640 BC:0003 DE:cd14 HL:cd2a SP:dfe7
32e1  dec  c AF:e640 BC:0003 DE:cd15 HL:cd2a SP:dfe7
32e2  jr   nz,$32de AF:e640 BC:0002 DE:cd15 HL:cd2a SP:dfe7
32de  ldi  a,(hl) AF:e640 BC:0002 DE:cd15 HL:cd2a SP:dfe7
32df  ld   (de),a AF:e640 BC:0002 DE:cd15 HL:cd2b SP:dfe7
32e0  inc  de AF:e640 BC:0002 DE:cd15 HL:cd2b SP:dfe7
32e1  dec  c AF:e640 BC:0002 DE:cd16 HL:cd2b SP:dfe7
32e2  jr   nz,$32de AF:e640 BC:0001 DE:cd16 HL:cd2b SP:dfe7
32de  ldi  a,(hl) AF:e640 BC:0001 DE:cd16 HL:cd2b SP:dfe7
32df  ld   (de),a AF:1b40 BC:0001 DE:cd16 HL:cd2c SP:dfe7
32e0  inc  de AF:1b40 BC:0001 DE:cd16 HL:cd2c SP:dfe7
32e1  dec  c AF:1b40 BC:0001 DE:cd17 HL:cd2c SP:dfe7
32e2  jr   nz,$32de AF:1bc0 BC:0000 DE:cd17 HL:cd2c SP:dfe7
32e4  ret AF:1bc0 BC:0000 DE:cd17 HL:cd2c SP:dfe7
659c  ld   a,($cc2a) AF:1bc0 BC:0000 DE:cd17 HL:cd2c SP:dfe9
659f  cp   a,$01 AF:02c0 BC:0000 DE:cd17 HL:cd2c SP:dfe9
65a1  jr   nz,$65ab AF:0240 BC:0000 DE:cd17 HL:cd2c SP:dfe9
65ab  call $666c AF:0240 BC:0000 DE:cd17 HL:cd2c SP:dfe9
666c  call $0e89 AF:0240 BC:0000 DE:cd17 HL:cd2c SP:dfe7
0e89  ld   hl,$c390 AF:0240 BC:0000 DE:cd17 HL:cd2c SP:dfe5
0e8c  ld   b,$04 AF:0240 BC:0000 DE:cd17 HL:c390 SP:dfe5
03ae  push af AF:0240 BC:0000 DE:cd17 HL:c390 SP:dfe3
03af  ld   a,($ffd0) AF:0240 BC:0000 DE:cd17 HL:c390 SP:dfe1
03b1  and  a,a AF:0040 BC:0000 DE:cd17 HL:c390 SP:dfe1
03b2  jr   z,$03df AF:00a0 BC:0000 DE:cd17 HL:c390 SP:dfe1
03df  pop  af AF:00a0 BC:0000 DE:cd17 HL:c390 SP:dfe1
03e0  reti AF:0240 BC:0000 DE:cd17 HL:c390 SP:dfe3
0e8c  ld   b,$04 AF:0240 BC:0000 DE:cd17 HL:c390 SP:dfe5
0e8e  ld   c,$12 AF:0240 BC:0400 DE:cd17 HL:c390 SP:dfe5
0e90  jp   $0e3d AF:0240 BC:0412 DE:cd17 HL:c390 SP:dfe5
0e3d  push hl AF:0240 BC:0412 DE:cd17 HL:c390 SP:dfe5
0e3e  ld   a,$79 AF:0240 BC:0412 DE:cd17 HL:c390 SP:dfe3
0e40  ldi  (hl),a AF:7940 BC:0412 DE:cd17 HL:c390 SP:dfe3
0e41  inc  a AF:7940 BC:0412 DE:cd17 HL:c391 SP:dfe3
0e42  call $0e6a AF:7a00 BC:0412 DE:cd17 HL:c391 SP:dfe3
0e6a  ld   d,c AF:7a00 BC:0412 DE:cd17 HL:c391 SP:dfe1
0e6b  ldi  (hl),a AF:7a00 BC:0412 DE:1217 HL:c391 SP:dfe1
0e6c  dec  d AF:7a00 BC:0412 DE:1217 HL:c392 SP:dfe1
0e6d  jr   nz,$0e6b AF:7a40 BC:0412 DE:1117 HL:c392 SP:dfe1
0e6b  ldi  (hl),a AF:7a40 BC:0412 DE:1117 HL:c392 SP:dfe1
0e6c  dec  d AF:7a40 BC:0412 DE:1117 HL:c393 SP:dfe1
0e6d  jr   nz,$0e6b AF:7a40 BC:0412 DE:1017 HL:c393 SP:dfe1
0e6b  ldi  (hl),a AF:7a40 BC:0412 DE:1017 HL:c393 SP:dfe1
0e6c  dec  d AF:7a40 BC:0412 DE:1017 HL:c394 SP:dfe1
0e6d  jr   nz,$0e6b AF:7a60 BC:0412 DE:0f17 HL:c394 SP:dfe1
0e6b  ldi  (hl),a AF:7a60 BC:0412 DE:0f17 HL:c394 SP:dfe1
0e6c  dec  d AF:7a60 BC:0412 DE:0f17 HL:c395 SP:dfe1
0e6d  jr   nz,$0e6b AF:7a40 BC:0412 DE:0e17 HL:c395 SP:dfe1
0e6b  ldi  (hl),a AF:7a40 BC:0412 DE:0e17 HL:c395 SP:dfe1
0e6c  dec  d AF:7a40 BC:0412 DE:0e17 HL:c396 SP:dfe1
0e6d  jr   nz,$0e6b AF:7a40 BC:0412 DE:0d17 HL:c396 SP:dfe1
0e6b  ldi  (hl),a AF:7a40 BC:0412 DE:0d17 HL:c396 SP:dfe1
0e6c  dec  d AF:7a40 BC:0412 DE:0d17 HL:c397 SP:dfe1
0e6d  jr   nz,$0e6b AF:7a40 BC:0412 DE:0c17 HL:c397 SP:dfe1
0e6b  ldi  (hl),a AF:7a40 BC:0412 DE:0c17 HL:c397 SP:dfe1
0e6c  dec  d AF:7a40 BC:0412 DE:0c17 HL:c398 SP:dfe1
0e6d  jr   nz,$0e6b AF:7a40 BC:0412 DE:0b17 HL:c398 SP:dfe1
0e6b  ldi  (hl),a AF:7a40 BC:0412 DE:0b17 HL:c398 SP:dfe1
0e6c  dec  d AF:7a40 BC:0412 DE:0b17 HL:c399 SP:dfe1
0e6d  jr   nz,$0e6b AF:7a40 BC:0412 DE:0a17 HL:c399 SP:dfe1
0e6b  ldi  (hl),a AF:7a40 BC:0412 DE:0a17 HL:c399 SP:dfe1
0e6c  dec  d AF:7a40 BC:0412 DE:0a17 HL:c39a SP:dfe1
0e6d  jr   nz,$0e6b AF:7a40 BC:0412 DE:0917 HL:c39a SP:dfe1
0e6b  ldi  (hl),a AF:7a40 BC:0412 DE:0917 HL:c39a SP:dfe1
0e6c  dec  d AF:7a40 BC:0412 DE:0917 HL:c39b SP:dfe1
0e6d  jr   nz,$0e6b AF:7a40 BC:0412 DE:0817 HL:c39b SP:dfe1
0e6b  ldi  (hl),a AF:7a40 BC:0412 DE:0817 HL:c39b SP:dfe1
0e6c  dec  d AF:7a40 BC:0412 DE:0817 HL:c39c SP:dfe1
0e6d  jr   nz,$0e6b AF:7a40 BC:0412 DE:0717 HL:c39c SP:dfe1
03ae  push af AF:7a40 BC:0412 DE:0717 HL:c39c SP:dfdf
03af  ld   a,($ffd0) AF:7a40 BC:0412 DE:0717 HL:c39c SP:dfdd
03b1  and  a,a AF:0040 BC:0412 DE:0717 HL:c39c SP:dfdd
03b2  jr   z,$03df AF:00a0 BC:0412 DE:0717 HL:c39c SP:dfdd
03df  pop  af AF:00a0 BC:0412 DE:0717 HL:c39c SP:dfdd
03e0  reti AF:7a40 BC:0412 DE:0717 HL:c39c SP:dfdf
0e6d  jr   nz,$0e6b AF:7a40 BC:0412 DE:0717 HL:c39c SP:dfe1
0e6b  ldi  (hl),a AF:7a40 BC:0412 DE:0717 HL:c39c SP:dfe1
0e6c  dec  d AF:7a40 BC:0412 DE:0717 HL:c39d SP:dfe1
0e6d  jr   nz,$0e6b AF:7a40 BC:0412 DE:0617 HL:c39d SP:dfe1
0e6b  ldi  (hl),a AF:7a40 BC:0412 DE:0617 HL:c39d SP:dfe1
0e6c  dec  d AF:7a40 BC:0412 DE:0617 HL:c39e SP:dfe1
0e6d  jr   nz,$0e6b AF:7a40 BC:0412 DE:0517 HL:c39e SP:dfe1
0e6b  ldi  (hl),a AF:7a40 BC:0412 DE:0517 HL:c39e SP:dfe1
0e6c  dec  d AF:7a40 BC:0412 DE:0517 HL:c39f SP:dfe1
0e6d  jr   nz,$0e6b AF:7a40 BC:0412 DE:0417 HL:c39f SP:dfe1
0e6b  ldi  (hl),a AF:7a40 BC:0412 DE:0417 HL:c39f SP:dfe1
0e6c  dec  d AF:7a40 BC:0412 DE:0417 HL:c3a0 SP:dfe1
0e6d  jr   nz,$0e6b AF:7a40 BC:0412 DE:0317 HL:c3a0 SP:dfe1
0e6b  ldi  (hl),a AF:7a40 BC:0412 DE:0317 HL:c3a0 SP:dfe1
0e6c  dec  d AF:7a40 BC:0412 DE:0317 HL:c3a1 SP:dfe1
0e6d  jr   nz,$0e6b AF:7a40 BC:0412 DE:0217 HL:c3a1 SP:dfe1
0e6b  ldi  (hl),a AF:7a40 BC:0412 DE:0217 HL:c3a1 SP:dfe1
0e6c  dec  d AF:7a40 BC:0412 DE:0217 HL:c3a2 SP:dfe1
0e6d  jr   nz,$0e6b AF:7a40 BC:0412 DE:0117 HL:c3a2 SP:dfe1
0e6b  ldi  (hl),a AF:7a40 BC:0412 DE:0117 HL:c3a2 SP:dfe1
0e6c  dec  d AF:7a40 BC:0412 DE:0117 HL:c3a3 SP:dfe1
0e6d  jr   nz,$0e6b AF:7ac0 BC:0412 DE:0017 HL:c3a3 SP:dfe1
0e6f  ret AF:7ac0 BC:0412 DE:0017 HL:c3a3 SP:dfe1
0e45  inc  a AF:7ac0 BC:0412 DE:0017 HL:c3a3 SP:dfe3
0e46  ld   (hl),a AF:7b00 BC:0412 DE:0017 HL:c3a3 SP:dfe3
0e47  pop  hl AF:7b00 BC:0412 DE:0017 HL:c3a3 SP:dfe3
0e48  ld   de,$0014 AF:7b00 BC:0412 DE:0017 HL:c390 SP:dfe5
0e4b  add  hl,de AF:7b00 BC:0412 DE:0014 HL:c390 SP:dfe5
0e4c  push hl AF:7b00 BC:0412 DE:0014 HL:c3a4 SP:dfe5
0e4d  ld   a,$7c AF:7b00 BC:0412 DE:0014 HL:c3a4 SP:dfe3
0e4f  ldi  (hl),a AF:7c00 BC:0412 DE:0014 HL:c3a4 SP:dfe3
0e50  ld   a,$7f AF:7c00 BC:0412 DE:0014 HL:c3a5 SP:dfe3
0e52  call $0e6a AF:7f00 BC:0412 DE:0014 HL:c3a5 SP:dfe3
0e6a  ld   d,c AF:7f00 BC:0412 DE:0014 HL:c3a5 SP:dfe1
0e6b  ldi  (hl),a AF:7f00 BC:0412 DE:1214 HL:c3a5 SP:dfe1
0e6c  dec  d AF:7f00 BC:0412 DE:1214 HL:c3a6 SP:dfe1
0e6d  jr   nz,$0e6b AF:7f40 BC:0412 DE:1114 HL:c3a6 SP:dfe1
0e6b  ldi  (hl),a AF:7f40 BC:0412 DE:1114 HL:c3a6 SP:dfe1
0e6c  dec  d AF:7f40 BC:0412 DE:1114 HL:c3a7 SP:dfe1
0e6d  jr   nz,$0e6b AF:7f40 BC:0412 DE:1014 HL:c3a7 SP:dfe1
0e6b  ldi  (hl),a AF:7f40 BC:0412 DE:1014 HL:c3a7 SP:dfe1
03ae  push af AF:7f40 BC:0412 DE:1014 HL:c3a7 SP:dfdf
03af  ld   a,($ffd0) AF:7f40 BC:0412 DE:1014 HL:c3a7 SP:dfdd
03b1  and  a,a AF:0040 BC:0412 DE:1014 HL:c3a7 SP:dfdd
03b2  jr   z,$03df AF:00a0 BC:0412 DE:1014 HL:c3a7 SP:dfdd
03df  pop  af AF:00a0 BC:0412 DE:1014 HL:c3a7 SP:dfdd
03e0  reti AF:7f40 BC:0412 DE:1014 HL:c3a7 SP:dfdf
0e6b  ldi  (hl),a AF:7f40 BC:0412 DE:1014 HL:c3a7 SP:dfe1
0e6c  dec  d AF:7f40 BC:0412 DE:1014 HL:c3a8 SP:dfe1
0e6d  jr   nz,$0e6b AF:7f60 BC:0412 DE:0f14 HL:c3a8 SP:dfe1
0e6b  ldi  (hl),a AF:7f60 BC:0412 DE:0f14 HL:c3a8 SP:dfe1
0e6c  dec  d AF:7f60 BC:0412 DE:0f14 HL:c3a9 SP:dfe1
0e6d  jr   nz,$0e6b AF:7f40 BC:0412 DE:0e14 HL:c3a9 SP:dfe1
0e6b  ldi  (hl),a AF:7f40 BC:0412 DE:0e14 HL:c3a9 SP:dfe1
0e6c  dec  d AF:7f40 BC:0412 DE:0e14 HL:c3aa SP:dfe1
0e6d  jr   nz,$0e6b AF:7f40 BC:0412 DE:0d14 HL:c3aa SP:dfe1
0e6b  ldi  (hl),a AF:7f40 BC:0412 DE:0d14 HL:c3aa SP:dfe1
0e6c  dec  d AF:7f40 BC:0412 DE:0d14 HL:c3ab SP:dfe1
0e6d  jr   nz,$0e6b AF:7f40 BC:0412 DE:0c14 HL:c3ab SP:dfe1
0e6b  ldi  (hl),a AF:7f40 BC:0412 DE:0c14 HL:c3ab SP:dfe1
0e6c  dec  d AF:7f40 BC:0412 DE:0c14 HL:c3ac SP:dfe1
0e6d  jr   nz,$0e6b AF:7f40 BC:0412 DE:0b14 HL:c3ac SP:dfe1
0e6b  ldi  (hl),a AF:7f40 BC:0412 DE:0b14 HL:c3ac SP:dfe1
0e6c  dec  d AF:7f40 BC:0412 DE:0b14 HL:c3ad SP:dfe1
0e6d  jr   nz,$0e6b AF:7f40 BC:0412 DE:0a14 HL:c3ad SP:dfe1
0e6b  ldi  (hl),a AF:7f40 BC:0412 DE:0a14 HL:c3ad SP:dfe1
0e6c  dec  d AF:7f40 BC:0412 DE:0a14 HL:c3ae SP:dfe1
0e6d  jr   nz,$0e6b AF:7f40 BC:0412 DE:0914 HL:c3ae SP:dfe1
0e6b  ldi  (hl),a AF:7f40 BC:0412 DE:0914 HL:c3ae SP:dfe1
0e6c  dec  d AF:7f40 BC:0412 DE:0914 HL:c3af SP:dfe1
0e6d  jr   nz,$0e6b AF:7f40 BC:0412 DE:0814 HL:c3af SP:dfe1
0e6b  ldi  (hl),a AF:7f40 BC:0412 DE:0814 HL:c3af SP:dfe1
0e6c  dec  d AF:7f40 BC:0412 DE:0814 HL:c3b0 SP:dfe1
0e6d  jr   nz,$0e6b AF:7f40 BC:0412 DE:0714 HL:c3b0 SP:dfe1
0e6b  ldi  (hl),a AF:7f40 BC:0412 DE:0714 HL:c3b0 SP:dfe1
0e6c  dec  d AF:7f40 BC:0412 DE:0714 HL:c3b1 SP:dfe1
0e6d  jr   nz,$0e6b AF:7f40 BC:0412 DE:0614 HL:c3b1 SP:dfe1
0e6b  ldi  (hl),a AF:7f40 BC:0412 DE:0614 HL:c3b1 SP:dfe1
0e6c  dec  d AF:7f40 BC:0412 DE:0614 HL:c3b2 SP:dfe1
0e6d  jr   nz,$0e6b AF:7f40 BC:0412 DE:0514 HL:c3b2 SP:dfe1
0e6b  ldi  (hl),a AF:7f40 BC:0412 DE:0514 HL:c3b2 SP:dfe1
0e6c  dec  d AF:7f40 BC:0412 DE:0514 HL:c3b3 SP:dfe1
0e6d  jr   nz,$0e6b AF:7f40 BC:0412 DE:0414 HL:c3b3 SP:dfe1
0e6b  ldi  (hl),a AF:7f40 BC:0412 DE:0414 HL:c3b3 SP:dfe1
0e6c  dec  d AF:7f40 BC:0412 DE:0414 HL:c3b4 SP:dfe1
0e6d  jr   nz,$0e6b AF:7f40 BC:0412 DE:0314 HL:c3b4 SP:dfe1
0e6b  ldi  (hl),a AF:7f40 BC:0412 DE:0314 HL:c3b4 SP:dfe1
0e6c  dec  d AF:7f40 BC:0412 DE:0314 HL:c3b5 SP:dfe1
0e6d  jr   nz,$0e6b AF:7f40 BC:0412 DE:0214 HL:c3b5 SP:dfe1
0e6b  ldi  (hl),a AF:7f40 BC:0412 DE:0214 HL:c3b5 SP:dfe1
0e6c  dec  d AF:7f40 BC:0412 DE:0214 HL:c3b6 SP:dfe1
03ae  push af AF:7f40 BC:0412 DE:0214 HL:c3b6 SP:dfdf
03af  ld   a,($ffd0) AF:7f40 BC:0412 DE:0214 HL:c3b6 SP:dfdd
03b1  and  a,a AF:0040 BC:0412 DE:0214 HL:c3b6 SP:dfdd
03b2  jr   z,$03df AF:00a0 BC:0412 DE:0214 HL:c3b6 SP:dfdd
03df  pop  af AF:00a0 BC:0412 DE:0214 HL:c3b6 SP:dfdd
03e0  reti AF:7f40 BC:0412 DE:0214 HL:c3b6 SP:dfdf
0e6c  dec  d AF:7f40 BC:0412 DE:0214 HL:c3b6 SP:dfe1
0e6d  jr   nz,$0e6b AF:7f40 BC:0412 DE:0114 HL:c3b6 SP:dfe1
0e6b  ldi  (hl),a AF:7f40 BC:0412 DE:0114 HL:c3b6 SP:dfe1
0e6c  dec  d AF:7f40 BC:0412 DE:0114 HL:c3b7 SP:dfe1
0e6d  jr   nz,$0e6b AF:7fc0 BC:0412 DE:0014 HL:c3b7 SP:dfe1
0e6f  ret AF:7fc0 BC:0412 DE:0014 HL:c3b7 SP:dfe1
0e55  ld   (hl),$7c AF:7fc0 BC:0412 DE:0014 HL:c3b7 SP:dfe3
0e57  pop  hl AF:7fc0 BC:0412 DE:0014 HL:c3b7 SP:dfe3
0e58  ld   de,$0014 AF:7fc0 BC:0412 DE:0014 HL:c3a4 SP:dfe5
0e5b  add  hl,de AF:7fc0 BC:0412 DE:0014 HL:c3a4 SP:dfe5
0e5c  dec  b AF:7f80 BC:0412 DE:0014 HL:c3b8 SP:dfe5
0e5d  jr   nz,$0e4c AF:7f40 BC:0312 DE:0014 HL:c3b8 SP:dfe5
0e4c  push hl AF:7f40 BC:0312 DE:0014 HL:c3b8 SP:dfe5
0e4d  ld   a,$7c AF:7f40 BC:0312 DE:0014 HL:c3b8 SP:dfe3
0e4f  ldi  (hl),a AF:7c40 BC:0312 DE:0014 HL:c3b8 SP:dfe3
0e50  ld   a,$7f AF:7c40 BC:0312 DE:0014 HL:c3b9 SP:dfe3
0e52  call $0e6a AF:7f40 BC:0312 DE:0014 HL:c3b9 SP:dfe3
0e6a  ld   d,c AF:7f40 BC:0312 DE:0014 HL:c3b9 SP:dfe1
0e6b  ldi  (hl),a AF:7f40 BC:0312 DE:1214 HL:c3b9 SP:dfe1
0e6c  dec  d AF:7f40 BC:0312 DE:1214 HL:c3ba SP:dfe1
0e6d  jr   nz,$0e6b AF:7f40 BC:0312 DE:1114 HL:c3ba SP:dfe1
0e6b  ldi  (hl),a AF:7f40 BC:0312 DE:1114 HL:c3ba SP:dfe1
0e6c  dec  d AF:7f40 BC:0312 DE:1114 HL:c3bb SP:dfe1
0e6d  jr   nz,$0e6b AF:7f40 BC:0312 DE:1014 HL:c3bb SP:dfe1
0e6b  ldi  (hl),a AF:7f40 BC:0312 DE:1014 HL:c3bb SP:dfe1
0e6c  dec  d AF:7f40 BC:0312 DE:1014 HL:c3bc SP:dfe1
0e6d  jr   nz,$0e6b AF:7f60 BC:0312 DE:0f14 HL:c3bc SP:dfe1
0e6b  ldi  (hl),a AF:7f60 BC:0312 DE:0f14 HL:c3bc SP:dfe1
0e6c  dec  d AF:7f60 BC:0312 DE:0f14 HL:c3bd SP:dfe1
0e6d  jr   nz,$0e6b AF:7f40 BC:0312 DE:0e14 HL:c3bd SP:dfe1
0e6b  ldi  (hl),a AF:7f40 BC:0312 DE:0e14 HL:c3bd SP:dfe1
0e6c  dec  d AF:7f40 BC:0312 DE:0e14 HL:c3be SP:dfe1
0e6d  jr   nz,$0e6b AF:7f40 BC:0312 DE:0d14 HL:c3be SP:dfe1
0e6b  ldi  (hl),a AF:7f40 BC:0312 DE:0d14 HL:c3be SP:dfe1
0e6c  dec  d AF:7f40 BC:0312 DE:0d14 HL:c3bf SP:dfe1
0e6d  jr   nz,$0e6b AF:7f40 BC:0312 DE:0c14 HL:c3bf SP:dfe1
0e6b  ldi  (hl),a AF:7f40 BC:0312 DE:0c14 HL:c3bf SP:dfe1
0e6c  dec  d AF:7f40 BC:0312 DE:0c14 HL:c3c0 SP:dfe1
0e6d  jr   nz,$0e6b AF:7f40 BC:0312 DE:0b14 HL:c3c0 SP:dfe1
0e6b  ldi  (hl),a AF:7f40 BC:0312 DE:0b14 HL:c3c0 SP:dfe1
03ae  push af AF:7f40 BC:0312 DE:0b14 HL:c3c0 SP:dfdf
03af  ld   a,($ffd0) AF:7f40 BC:0312 DE:0b14 HL:c3c0 SP:dfdd
03b1  and  a,a AF:0040 BC:0312 DE:0b14 HL:c3c0 SP:dfdd
03b2  jr   z,$03df AF:00a0 BC:0312 DE:0b14 HL:c3c0 SP:dfdd
03df  pop  af AF:00a0 BC:0312 DE:0b14 HL:c3c0 SP:dfdd
03e0  reti AF:7f40 BC:0312 DE:0b14 HL:c3c0 SP:dfdf
0e6b  ldi  (hl),a AF:7f40 BC:0312 DE:0b14 HL:c3c0 SP:dfe1
0e6c  dec  d AF:7f40 BC:0312 DE:0b14 HL:c3c1 SP:dfe1
0e6d  jr   nz,$0e6b AF:7f40 BC:0312 DE:0a14 HL:c3c1 SP:dfe1
0e6b  ldi  (hl),a AF:7f40 BC:0312 DE:0a14 HL:c3c1 SP:dfe1
0e6c  dec  d AF:7f40 BC:0312 DE:0a14 HL:c3c2 SP:dfe1
0e6d  jr   nz,$0e6b AF:7f40 BC:0312 DE:0914 HL:c3c2 SP:dfe1
0e6b  ldi  (hl),a AF:7f40 BC:0312 DE:0914 HL:c3c2 SP:dfe1
0e6c  dec  d AF:7f40 BC:0312 DE:0914 HL:c3c3 SP:dfe1
0e6d  jr   nz,$0e6b AF:7f40 BC:0312 DE:0814 HL:c3c3 SP:dfe1
0e6b  ldi  (hl),a AF:7f40 BC:0312 DE:0814 HL:c3c3 SP:dfe1
0e6c  dec  d AF:7f40 BC:0312 DE:0814 HL:c3c4 SP:dfe1
0e6d  jr   nz,$0e6b AF:7f40 BC:0312 DE:0714 HL:c3c4 SP:dfe1
0e6b  ldi  (hl),a AF:7f40 BC:0312 DE:0714 HL:c3c4 SP:dfe1
0e6c  dec  d AF:7f40 BC:0312 DE:0714 HL:c3c5 SP:dfe1
0e6d  jr   nz,$0e6b AF:7f40 BC:0312 DE:0614 HL:c3c5 SP:dfe1
0e6b  ldi  (hl),a AF:7f40 BC:0312 DE:0614 HL:c3c5 SP:dfe1
0e6c  dec  d AF:7f40 BC:0312 DE:0614 HL:c3c6 SP:dfe1
0e6d  jr   nz,$0e6b AF:7f40 BC:0312 DE:0514 HL:c3c6 SP:dfe1
0e6b  ldi  (hl),a AF:7f40 BC:0312 DE:0514 HL:c3c6 SP:dfe1
0e6c  dec  d AF:7f40 BC:0312 DE:0514 HL:c3c7 SP:dfe1
0e6d  jr   nz,$0e6b AF:7f40 BC:0312 DE:0414 HL:c3c7 SP:dfe1
0e6b  ldi  (hl),a AF:7f40 BC:0312 DE:0414 HL:c3c7 SP:dfe1
0e6c  dec  d AF:7f40 BC:0312 DE:0414 HL:c3c8 SP:dfe1
0e6d  jr   nz,$0e6b AF:7f40 BC:0312 DE:0314 HL:c3c8 SP:dfe1
0e6b  ldi  (hl),a AF:7f40 BC:0312 DE:0314 HL:c3c8 SP:dfe1
0e6c  dec  d AF:7f40 BC:0312 DE:0314 HL:c3c9 SP:dfe1
0e6d  jr   nz,$0e6b AF:7f40 BC:0312 DE:0214 HL:c3c9 SP:dfe1
0e6b  ldi  (hl),a AF:7f40 BC:0312 DE:0214 HL:c3c9 SP:dfe1
0e6c  dec  d AF:7f40 BC:0312 DE:0214 HL:c3ca SP:dfe1
0e6d  jr   nz,$0e6b AF:7f40 BC:0312 DE:0114 HL:c3ca SP:dfe1
0e6b  ldi  (hl),a AF:7f40 BC:0312 DE:0114 HL:c3ca SP:dfe1
0e6c  dec  d AF:7f40 BC:0312 DE:0114 HL:c3cb SP:dfe1
0e6d  jr   nz,$0e6b AF:7fc0 BC:0312 DE:0014 HL:c3cb SP:dfe1
0e6f  ret AF:7fc0 BC:0312 DE:0014 HL:c3cb SP:dfe1
0e55  ld   (hl),$7c AF:7fc0 BC:0312 DE:0014 HL:c3cb SP:dfe3
0e57  pop  hl AF:7fc0 BC:0312 DE:0014 HL:c3cb SP:dfe3
0e58  ld   de,$0014 AF:7fc0 BC:0312 DE:0014 HL:c3b8 SP:dfe5
0e5b  add  hl,de AF:7fc0 BC:0312 DE:0014 HL:c3b8 SP:dfe5
0e5c  dec  b AF:7f80 BC:0312 DE:0014 HL:c3cc SP:dfe5
0e5d  jr   nz,$0e4c AF:7f40 BC:0212 DE:0014 HL:c3cc SP:dfe5
0e4c  push hl AF:7f40 BC:0212 DE:0014 HL:c3cc SP:dfe5
0e4d  ld   a,$7c AF:7f40 BC:0212 DE:0014 HL:c3cc SP:dfe3
03ae  push af AF:7f40 BC:0212 DE:0014 HL:c3cc SP:dfe1
03af  ld   a,($ffd0) AF:7f40 BC:0212 DE:0014 HL:c3cc SP:dfdf
03b1  and  a,a AF:0040 BC:0212 DE:0014 HL:c3cc SP:dfdf
03b2  jr   z,$03df AF:00a0 BC:0212 DE:0014 HL:c3cc SP:dfdf
03df  pop  af AF:00a0 BC:0212 DE:0014 HL:c3cc SP:dfdf
03e0  reti AF:7f40 BC:0212 DE:0014 HL:c3cc SP:dfe1
0e4d  ld   a,$7c AF:7f40 BC:0212 DE:0014 HL:c3cc SP:dfe3
0e4f  ldi  (hl),a AF:7c40 BC:0212 DE:0014 HL:c3cc SP:dfe3
0e50  ld   a,$7f AF:7c40 BC:0212 DE:0014 HL:c3cd SP:dfe3
0e52  call $0e6a AF:7f40 BC:0212 DE:0014 HL:c3cd SP:dfe3
0e6a  ld   d,c AF:7f40 BC:0212 DE:0014 HL:c3cd SP:dfe1
0e6b  ldi  (hl),a AF:7f40 BC:0212 DE:1214 HL:c3cd SP:dfe1
0e6c  dec  d AF:7f40 BC:0212 DE:1214 HL:c3ce SP:dfe1
0e6d  jr   nz,$0e6b AF:7f40 BC:0212 DE:1114 HL:c3ce SP:dfe1
0e6b  ldi  (hl),a AF:7f40 BC:0212 DE:1114 HL:c3ce SP:dfe1
0e6c  dec  d AF:7f40 BC:0212 DE:1114 HL:c3cf SP:dfe1
0e6d  jr   nz,$0e6b AF:7f40 BC:0212 DE:1014 HL:c3cf SP:dfe1
0e6b  ldi  (hl),a AF:7f40 BC:0212 DE:1014 HL:c3cf SP:dfe1
0e6c  dec  d AF:7f40 BC:0212 DE:1014 HL:c3d0 SP:dfe1
0e6d  jr   nz,$0e6b AF:7f60 BC:0212 DE:0f14 HL:c3d0 SP:dfe1
0e6b  ldi  (hl),a AF:7f60 BC:0212 DE:0f14 HL:c3d0 SP:dfe1
0e6c  dec  d AF:7f60 BC:0212 DE:0f14 HL:c3d1 SP:dfe1
0e6d  jr   nz,$0e6b AF:7f40 BC:0212 DE:0e14 HL:c3d1 SP:dfe1
0e6b  ldi  (hl),a AF:7f40 BC:0212 DE:0e14 HL:c3d1 SP:dfe1
0e6c  dec  d AF:7f40 BC:0212 DE:0e14 HL:c3d2 SP:dfe1
0e6d  jr   nz,$0e6b AF:7f40 BC:0212 DE:0d14 HL:c3d2 SP:dfe1
0e6b  ldi  (hl),a AF:7f40 BC:0212 DE:0d14 HL:c3d2 SP:dfe1
0e6c  dec  d AF:7f40 BC:0212 DE:0d14 HL:c3d3 SP:dfe1
0e6d  jr   nz,$0e6b AF:7f40 BC:0212 DE:0c14 HL:c3d3 SP:dfe1
0e6b  ldi  (hl),a AF:7f40 BC:0212 DE:0c14 HL:c3d3 SP:dfe1
0e6c  dec  d AF:7f40 BC:0212 DE:0c14 HL:c3d4 SP:dfe1
0e6d  jr   nz,$0e6b AF:7f40 BC:0212 DE:0b14 HL:c3d4 SP:dfe1
0e6b  ldi  (hl),a AF:7f40 BC:0212 DE:0b14 HL:c3d4 SP:dfe1
0e6c  dec  d AF:7f40 BC:0212 DE:0b14 HL:c3d5 SP:dfe1
0e6d  jr   nz,$0e6b AF:7f40 BC:0212 DE:0a14 HL:c3d5 SP:dfe1
0e6b  ldi  (hl),a AF:7f40 BC:0212 DE:0a14 HL:c3d5 SP:dfe1
0e6c  dec  d AF:7f40 BC:0212 DE:0a14 HL:c3d6 SP:dfe1
0e6d  jr   nz,$0e6b AF:7f40 BC:0212 DE:0914 HL:c3d6 SP:dfe1
0e6b  ldi  (hl),a AF:7f40 BC:0212 DE:0914 HL:c3d6 SP:dfe1
0e6c  dec  d AF:7f40 BC:0212 DE:0914 HL:c3d7 SP:dfe1
0e6d  jr   nz,$0e6b AF:7f40 BC:0212 DE:0814 HL:c3d7 SP:dfe1
0e6b  ldi  (hl),a AF:7f40 BC:0212 DE:0814 HL:c3d7 SP:dfe1
0e6c  dec  d AF:7f40 BC:0212 DE:0814 HL:c3d8 SP:dfe1
0e6d  jr   nz,$0e6b AF:7f40 BC:0212 DE:0714 HL:c3d8 SP:dfe1
0e6b  ldi  (hl),a AF:7f40 BC:0212 DE:0714 HL:c3d8 SP:dfe1
0e6c  dec  d AF:7f40 BC:0212 DE:0714 HL:c3d9 SP:dfe1
0e6d  jr   nz,$0e6b AF:7f40 BC:0212 DE:0614 HL:c3d9 SP:dfe1
0e6b  ldi  (hl),a AF:7f40 BC:0212 DE:0614 HL:c3d9 SP:dfe1
0e6c  dec  d AF:7f40 BC:0212 DE:0614 HL:c3da SP:dfe1
03ae  push af AF:7f40 BC:0212 DE:0614 HL:c3da SP:dfdf
03af  ld   a,($ffd0) AF:7f40 BC:0212 DE:0614 HL:c3da SP:dfdd
03b1  and  a,a AF:0040 BC:0212 DE:0614 HL:c3da SP:dfdd
03b2  jr   z,$03df AF:00a0 BC:0212 DE:0614 HL:c3da SP:dfdd
03df  pop  af AF:00a0 BC:0212 DE:0614 HL:c3da SP:dfdd
03e0  reti AF:7f40 BC:0212 DE:0614 HL:c3da SP:dfdf
0e6c  dec  d AF:7f40 BC:0212 DE:0614 HL:c3da SP:dfe1
0e6d  jr   nz,$0e6b AF:7f40 BC:0212 DE:0514 HL:c3da SP:dfe1
0e6b  ldi  (hl),a AF:7f40 BC:0212 DE:0514 HL:c3da SP:dfe1
0e6c  dec  d AF:7f40 BC:0212 DE:0514 HL:c3db SP:dfe1
0e6d  jr   nz,$0e6b AF:7f40 BC:0212 DE:0414 HL:c3db SP:dfe1
0e6b  ldi  (hl),a AF:7f40 BC:0212 DE:0414 HL:c3db SP:dfe1
0e6c  dec  d AF:7f40 BC:0212 DE:0414 HL:c3dc SP:dfe1
0e6d  jr   nz,$0e6b AF:7f40 BC:0212 DE:0314 HL:c3dc SP:dfe1
0e6b  ldi  (hl),a AF:7f40 BC:0212 DE:0314 HL:c3dc SP:dfe1
0e6c  dec  d AF:7f40 BC:0212 DE:0314 HL:c3dd SP:dfe1
0e6d  jr   nz,$0e6b AF:7f40 BC:0212 DE:0214 HL:c3dd SP:dfe1
0e6b  ldi  (hl),a AF:7f40 BC:0212 DE:0214 HL:c3dd SP:dfe1
0e6c  dec  d AF:7f40 BC:0212 DE:0214 HL:c3de SP:dfe1
0e6d  jr   nz,$0e6b AF:7f40 BC:0212 DE:0114 HL:c3de SP:dfe1
0e6b  ldi  (hl),a AF:7f40 BC:0212 DE:0114 HL:c3de SP:dfe1
0e6c  dec  d AF:7f40 BC:0212 DE:0114 HL:c3df SP:dfe1
0e6d  jr   nz,$0e6b AF:7fc0 BC:0212 DE:0014 HL:c3df SP:dfe1
0e6f  ret AF:7fc0 BC:0212 DE:0014 HL:c3df SP:dfe1
0e55  ld   (hl),$7c AF:7fc0 BC:0212 DE:0014 HL:c3df SP:dfe3
0e57  pop  hl AF:7fc0 BC:0212 DE:0014 HL:c3df SP:dfe3
0e58  ld   de,$0014 AF:7fc0 BC:0212 DE:0014 HL:c3cc SP:dfe5
0e5b  add  hl,de AF:7fc0 BC:0212 DE:0014 HL:c3cc SP:dfe5
0e5c  dec  b AF:7f80 BC:0212 DE:0014 HL:c3e0 SP:dfe5
0e5d  jr   nz,$0e4c AF:7f40 BC:0112 DE:0014 HL:c3e0 SP:dfe5
0e4c  push hl AF:7f40 BC:0112 DE:0014 HL:c3e0 SP:dfe5
0e4d  ld   a,$7c AF:7f40 BC:0112 DE:0014 HL:c3e0 SP:dfe3
0e4f  ldi  (hl),a AF:7c40 BC:0112 DE:0014 HL:c3e0 SP:dfe3
0e50  ld   a,$7f AF:7c40 BC:0112 DE:0014 HL:c3e1 SP:dfe3
0e52  call $0e6a AF:7f40 BC:0112 DE:0014 HL:c3e1 SP:dfe3
0e6a  ld   d,c AF:7f40 BC:0112 DE:0014 HL:c3e1 SP:dfe1
0e6b  ldi  (hl),a AF:7f40 BC:0112 DE:1214 HL:c3e1 SP:dfe1
0e6c  dec  d AF:7f40 BC:0112 DE:1214 HL:c3e2 SP:dfe1
0e6d  jr   nz,$0e6b AF:7f40 BC:0112 DE:1114 HL:c3e2 SP:dfe1
0e6b  ldi  (hl),a AF:7f40 BC:0112 DE:1114 HL:c3e2 SP:dfe1
0e6c  dec  d AF:7f40 BC:0112 DE:1114 HL:c3e3 SP:dfe1
0e6d  jr   nz,$0e6b AF:7f40 BC:0112 DE:1014 HL:c3e3 SP:dfe1
0e6b  ldi  (hl),a AF:7f40 BC:0112 DE:1014 HL:c3e3 SP:dfe1
0e6c  dec  d AF:7f40 BC:0112 DE:1014 HL:c3e4 SP:dfe1
0e6d  jr   nz,$0e6b AF:7f60 BC:0112 DE:0f14 HL:c3e4 SP:dfe1
0e6b  ldi  (hl),a AF:7f60 BC:0112 DE:0f14 HL:c3e4 SP:dfe1
03ae  push af AF:7f60 BC:0112 DE:0f14 HL:c3e4 SP:dfdf
03af  ld   a,($ffd0) AF:7f60 BC:0112 DE:0f14 HL:c3e4 SP:dfdd
03b1  and  a,a AF:0060 BC:0112 DE:0f14 HL:c3e4 SP:dfdd
03b2  jr   z,$03df AF:00a0 BC:0112 DE:0f14 HL:c3e4 SP:dfdd
03df  pop  af AF:00a0 BC:0112 DE:0f14 HL:c3e4 SP:dfdd
03e0  reti AF:7f60 BC:0112 DE:0f14 HL:c3e4 SP:dfdf
0e6b  ldi  (hl),a AF:7f60 BC:0112 DE:0f14 HL:c3e4 SP:dfe1
0e6c  dec  d AF:7f60 BC:0112 DE:0f14 HL:c3e5 SP:dfe1
0e6d  jr   nz,$0e6b AF:7f40 BC:0112 DE:0e14 HL:c3e5 SP:dfe1
0e6b  ldi  (hl),a AF:7f40 BC:0112 DE:0e14 HL:c3e5 SP:dfe1
0e6c  dec  d AF:7f40 BC:0112 DE:0e14 HL:c3e6 SP:dfe1
0e6d  jr   nz,$0e6b AF:7f40 BC:0112 DE:0d14 HL:c3e6 SP:dfe1
0e6b  ldi  (hl),a AF:7f40 BC:0112 DE:0d14 HL:c3e6 SP:dfe1
0e6c  dec  d AF:7f40 BC:0112 DE:0d14 HL:c3e7 SP:dfe1
0e6d  jr   nz,$0e6b AF:7f40 BC:0112 DE:0c14 HL:c3e7 SP:dfe1
0e6b  ldi  (hl),a AF:7f40 BC:0112 DE:0c14 HL:c3e7 SP:dfe1
0e6c  dec  d AF:7f40 BC:0112 DE:0c14 HL:c3e8 SP:dfe1
0e6d  jr   nz,$0e6b AF:7f40 BC:0112 DE:0b14 HL:c3e8 SP:dfe1
0e6b  ldi  (hl),a AF:7f40 BC:0112 DE:0b14 HL:c3e8 SP:dfe1
0e6c  dec  d AF:7f40 BC:0112 DE:0b14 HL:c3e9 SP:dfe1
0e6d  jr   nz,$0e6b AF:7f40 BC:0112 DE:0a14 HL:c3e9 SP:dfe1
0e6b  ldi  (hl),a AF:7f40 BC:0112 DE:0a14 HL:c3e9 SP:dfe1
0e6c  dec  d AF:7f40 BC:0112 DE:0a14 HL:c3ea SP:dfe1
0e6d  jr   nz,$0e6b AF:7f40 BC:0112 DE:0914 HL:c3ea SP:dfe1
0e6b  ldi  (hl),a AF:7f40 BC:0112 DE:0914 HL:c3ea SP:dfe1
0e6c  dec  d AF:7f40 BC:0112 DE:0914 HL:c3eb SP:dfe1
0e6d  jr   nz,$0e6b AF:7f40 BC:0112 DE:0814 HL:c3eb SP:dfe1
0e6b  ldi  (hl),a AF:7f40 BC:0112 DE:0814 HL:c3eb SP:dfe1
0e6c  dec  d AF:7f40 BC:0112 DE:0814 HL:c3ec SP:dfe1
0e6d  jr   nz,$0e6b AF:7f40 BC:0112 DE:0714 HL:c3ec SP:dfe1
0e6b  ldi  (hl),a AF:7f40 BC:0112 DE:0714 HL:c3ec SP:dfe1
0e6c  dec  d AF:7f40 BC:0112 DE:0714 HL:c3ed SP:dfe1
0e6d  jr   nz,$0e6b AF:7f40 BC:0112 DE:0614 HL:c3ed SP:dfe1
0e6b  ldi  (hl),a AF:7f40 BC:0112 DE:0614 HL:c3ed SP:dfe1
0e6c  dec  d AF:7f40 BC:0112 DE:0614 HL:c3ee SP:dfe1
0e6d  jr   nz,$0e6b AF:7f40 BC:0112 DE:0514 HL:c3ee SP:dfe1
0e6b  ldi  (hl),a AF:7f40 BC:0112 DE:0514 HL:c3ee SP:dfe1
0e6c  dec  d AF:7f40 BC:0112 DE:0514 HL:c3ef SP:dfe1
0e6d  jr   nz,$0e6b AF:7f40 BC:0112 DE:0414 HL:c3ef SP:dfe1
0e6b  ldi  (hl),a AF:7f40 BC:0112 DE:0414 HL:c3ef SP:dfe1
0e6c  dec  d AF:7f40 BC:0112 DE:0414 HL:c3f0 SP:dfe1
0e6d  jr   nz,$0e6b AF:7f40 BC:0112 DE:0314 HL:c3f0 SP:dfe1
0e6b  ldi  (hl),a AF:7f40 BC:0112 DE:0314 HL:c3f0 SP:dfe1
0e6c  dec  d AF:7f40 BC:0112 DE:0314 HL:c3f1 SP:dfe1
0e6d  jr   nz,$0e6b AF:7f40 BC:0112 DE:0214 HL:c3f1 SP:dfe1
0e6b  ldi  (hl),a AF:7f40 BC:0112 DE:0214 HL:c3f1 SP:dfe1
0e6c  dec  d AF:7f40 BC:0112 DE:0214 HL:c3f2 SP:dfe1
0e6d  jr   nz,$0e6b AF:7f40 BC:0112 DE:0114 HL:c3f2 SP:dfe1
0e6b  ldi  (hl),a AF:7f40 BC:0112 DE:0114 HL:c3f2 SP:dfe1
0e6c  dec  d AF:7f40 BC:0112 DE:0114 HL:c3f3 SP:dfe1
03ae  push af AF:7f40 BC:0112 DE:0114 HL:c3f3 SP:dfdf
03af  ld   a,($ffd0) AF:7f40 BC:0112 DE:0114 HL:c3f3 SP:dfdd
03b1  and  a,a AF:0040 BC:0112 DE:0114 HL:c3f3 SP:dfdd
03b2  jr   z,$03df AF:00a0 BC:0112 DE:0114 HL:c3f3 SP:dfdd
03df  pop  af AF:00a0 BC:0112 DE:0114 HL:c3f3 SP:dfdd
03e0  reti AF:7f40 BC:0112 DE:0114 HL:c3f3 SP:dfdf
0e6c  dec  d AF:7f40 BC:0112 DE:0114 HL:c3f3 SP:dfe1
0e6d  jr   nz,$0e6b AF:7fc0 BC:0112 DE:0014 HL:c3f3 SP:dfe1
0e6f  ret AF:7fc0 BC:0112 DE:0014 HL:c3f3 SP:dfe1
0e55  ld   (hl),$7c AF:7fc0 BC:0112 DE:0014 HL:c3f3 SP:dfe3
0e57  pop  hl AF:7fc0 BC:0112 DE:0014 HL:c3f3 SP:dfe3
0e58  ld   de,$0014 AF:7fc0 BC:0112 DE:0014 HL:c3e0 SP:dfe5
0e5b  add  hl,de AF:7fc0 BC:0112 DE:0014 HL:c3e0 SP:dfe5
0e5c  dec  b AF:7f80 BC:0112 DE:0014 HL:c3f4 SP:dfe5
0e5d  jr   nz,$0e4c AF:7fc0 BC:0012 DE:0014 HL:c3f4 SP:dfe5
0e5f  ld   a,$7d AF:7fc0 BC:0012 DE:0014 HL:c3f4 SP:dfe5
0e61  ldi  (hl),a AF:7dc0 BC:0012 DE:0014 HL:c3f4 SP:dfe5
0e62  ld   a,$7a AF:7dc0 BC:0012 DE:0014 HL:c3f5 SP:dfe5
0e64  call $0e6a AF:7ac0 BC:0012 DE:0014 HL:c3f5 SP:dfe5
0e6a  ld   d,c AF:7ac0 BC:0012 DE:0014 HL:c3f5 SP:dfe3
0e6b  ldi  (hl),a AF:7ac0 BC:0012 DE:1214 HL:c3f5 SP:dfe3
0e6c  dec  d AF:7ac0 BC:0012 DE:1214 HL:c3f6 SP:dfe3
0e6d  jr   nz,$0e6b AF:7a40 BC:0012 DE:1114 HL:c3f6 SP:dfe3
0e6b  ldi  (hl),a AF:7a40 BC:0012 DE:1114 HL:c3f6 SP:dfe3
0e6c  dec  d AF:7a40 BC:0012 DE:1114 HL:c3f7 SP:dfe3
0e6d  jr   nz,$0e6b AF:7a40 BC:0012 DE:1014 HL:c3f7 SP:dfe3
0e6b  ldi  (hl),a AF:7a40 BC:0012 DE:1014 HL:c3f7 SP:dfe3
0e6c  dec  d AF:7a40 BC:0012 DE:1014 HL:c3f8 SP:dfe3
0e6d  jr   nz,$0e6b AF:7a60 BC:0012 DE:0f14 HL:c3f8 SP:dfe3
0e6b  ldi  (hl),a AF:7a60 BC:0012 DE:0f14 HL:c3f8 SP:dfe3
0e6c  dec  d AF:7a60 BC:0012 DE:0f14 HL:c3f9 SP:dfe3
0e6d  jr   nz,$0e6b AF:7a40 BC:0012 DE:0e14 HL:c3f9 SP:dfe3
0e6b  ldi  (hl),a AF:7a40 BC:0012 DE:0e14 HL:c3f9 SP:dfe3
0e6c  dec  d AF:7a40 BC:0012 DE:0e14 HL:c3fa SP:dfe3
0e6d  jr   nz,$0e6b AF:7a40 BC:0012 DE:0d14 HL:c3fa SP:dfe3
0e6b  ldi  (hl),a AF:7a40 BC:0012 DE:0d14 HL:c3fa SP:dfe3
0e6c  dec  d AF:7a40 BC:0012 DE:0d14 HL:c3fb SP:dfe3
0e6d  jr   nz,$0e6b AF:7a40 BC:0012 DE:0c14 HL:c3fb SP:dfe3
0e6b  ldi  (hl),a AF:7a40 BC:0012 DE:0c14 HL:c3fb SP:dfe3
0e6c  dec  d AF:7a40 BC:0012 DE:0c14 HL:c3fc SP:dfe3
0e6d  jr   nz,$0e6b AF:7a40 BC:0012 DE:0b14 HL:c3fc SP:dfe3
0e6b  ldi  (hl),a AF:7a40 BC:0012 DE:0b14 HL:c3fc SP:dfe3
0e6c  dec  d AF:7a40 BC:0012 DE:0b14 HL:c3fd SP:dfe3
0e6d  jr   nz,$0e6b AF:7a40 BC:0012 DE:0a14 HL:c3fd SP:dfe3
0e6b  ldi  (hl),a AF:7a40 BC:0012 DE:0a14 HL:c3fd SP:dfe3
0e6c  dec  d AF:7a40 BC:0012 DE:0a14 HL:c3fe SP:dfe3
0e6d  jr   nz,$0e6b AF:7a40 BC:0012 DE:0914 HL:c3fe SP:dfe3
0e6b  ldi  (hl),a AF:7a40 BC:0012 DE:0914 HL:c3fe SP:dfe3
03ae  push af AF:7a40 BC:0012 DE:0914 HL:c3fe SP:dfe1
03af  ld   a,($ffd0) AF:7a40 BC:0012 DE:0914 HL:c3fe SP:dfdf
03b1  and  a,a AF:0040 BC:0012 DE:0914 HL:c3fe SP:dfdf
03b2  jr   z,$03df AF:00a0 BC:0012 DE:0914 HL:c3fe SP:dfdf
03df  pop  af AF:00a0 BC:0012 DE:0914 HL:c3fe SP:dfdf
03e0  reti AF:7a40 BC:0012 DE:0914 HL:c3fe SP:dfe1
0e6b  ldi  (hl),a AF:7a40 BC:0012 DE:0914 HL:c3fe SP:dfe3
0e6c  dec  d AF:7a40 BC:0012 DE:0914 HL:c3ff SP:dfe3
0e6d  jr   nz,$0e6b AF:7a40 BC:0012 DE:0814 HL:c3ff SP:dfe3
0e6b  ldi  (hl),a AF:7a40 BC:0012 DE:0814 HL:c3ff SP:dfe3
0e6c  dec  d AF:7a40 BC:0012 DE:0814 HL:c400 SP:dfe3
0e6d  jr   nz,$0e6b AF:7a40 BC:0012 DE:0714 HL:c400 SP:dfe3
0e6b  ldi  (hl),a AF:7a40 BC:0012 DE:0714 HL:c400 SP:dfe3
0e6c  dec  d AF:7a40 BC:0012 DE:0714 HL:c401 SP:dfe3
0e6d  jr   nz,$0e6b AF:7a40 BC:0012 DE:0614 HL:c401 SP:dfe3
0e6b  ldi  (hl),a AF:7a40 BC:0012 DE:0614 HL:c401 SP:dfe3
0e6c  dec  d AF:7a40 BC:0012 DE:0614 HL:c402 SP:dfe3
0e6d  jr   nz,$0e6b AF:7a40 BC:0012 DE:0514 HL:c402 SP:dfe3
0e6b  ldi  (hl),a AF:7a40 BC:0012 DE:0514 HL:c402 SP:dfe3
0e6c  dec  d AF:7a40 BC:0012 DE:0514 HL:c403 SP:dfe3
0e6d  jr   nz,$0e6b AF:7a40 BC:0012 DE:0414 HL:c403 SP:dfe3
0e6b  ldi  (hl),a AF:7a40 BC:0012 DE:0414 HL:c403 SP:dfe3
0e6c  dec  d AF:7a40 BC:0012 DE:0414 HL:c404 SP:dfe3
0e6d  jr   nz,$0e6b AF:7a40 BC:0012 DE:0314 HL:c404 SP:dfe3
0e6b  ldi  (hl),a AF:7a40 BC:0012 DE:0314 HL:c404 SP:dfe3
0e6c  dec  d AF:7a40 BC:0012 DE:0314 HL:c405 SP:dfe3
0e6d  jr   nz,$0e6b AF:7a40 BC:0012 DE:0214 HL:c405 SP:dfe3
0e6b  ldi  (hl),a AF:7a40 BC:0012 DE:0214 HL:c405 SP:dfe3
0e6c  dec  d AF:7a40 BC:0012 DE:0214 HL:c406 SP:dfe3
0e6d  jr   nz,$0e6b AF:7a40 BC:0012 DE:0114 HL:c406 SP:dfe3
0e6b  ldi  (hl),a AF:7a40 BC:0012 DE:0114 HL:c406 SP:dfe3
0e6c  dec  d AF:7a40 BC:0012 DE:0114 HL:c407 SP:dfe3
0e6d  jr   nz,$0e6b AF:7ac0 BC:0012 DE:0014 HL:c407 SP:dfe3
0e6f  ret AF:7ac0 BC:0012 DE:0014 HL:c407 SP:dfe3
0e67  ld   (hl),$7e AF:7ac0 BC:0012 DE:0014 HL:c407 SP:dfe5
0e69  ret AF:7ac0 BC:0012 DE:0014 HL:c407 SP:dfe5
666f  call $6784 AF:7ac0 BC:0012 DE:0014 HL:c407 SP:dfe7
6784  push af AF:7ac0 BC:0012 DE:0014 HL:c407 SP:dfe5
6785  ld   a,$01 AF:7ac0 BC:0012 DE:0014 HL:c407 SP:dfe3
6787  call $3c07 AF:01c0 BC:0012 DE:0014 HL:c407 SP:dfe3
3c07  push bc AF:01c0 BC:0012 DE:0014 HL:c407 SP:dfe1
3c08  ld   hl,$d6b2 AF:01c0 BC:0012 DE:0014 HL:c407 SP:dfdf
03ae  push af AF:01c0 BC:0012 DE:0014 HL:c407 SP:dfdd
03af  ld   a,($ffd0) AF:01c0 BC:0012 DE:0014 HL:c407 SP:dfdb
03b1  and  a,a AF:00c0 BC:0012 DE:0014 HL:c407 SP:dfdb
03b2  jr   z,$03df AF:00a0 BC:0012 DE:0014 HL:c407 SP:dfdb
03df  pop  af AF:00a0 BC:0012 DE:0014 HL:c407 SP:dfdb
03e0  reti AF:01c0 BC:0012 DE:0014 HL:c407 SP:dfdd
3c08  ld   hl,$d6b2 AF:01c0 BC:0012 DE:0014 HL:c407 SP:dfdf
3c0b  ld   c,a AF:01c0 BC:0012 DE:0014 HL:d6b2 SP:dfdf
3c0c  ld   b,$00 AF:01c0 BC:0001 DE:0014 HL:d6b2 SP:dfdf
3c0e  add  hl,bc AF:01c0 BC:0001 DE:0014 HL:d6b2 SP:dfdf
3c0f  ld   bc,$0030 AF:0180 BC:0001 DE:0014 HL:d6b3 SP:dfdf
3c12  ld   a,($cd79) AF:0180 BC:0030 DE:0014 HL:d6b3 SP:dfdf
3c15  call $33ed AF:0180 BC:0030 DE:0014 HL:d6b3 SP:dfdf
33ed  and  a,a AF:0180 BC:0030 DE:0014 HL:d6b3 SP:dfdd
33ee  ret  z AF:0120 BC:0030 DE:0014 HL:d6b3 SP:dfdd
33ef  add  hl,bc AF:0120 BC:0030 DE:0014 HL:d6b3 SP:dfdd
33f0  dec  a AF:0100 BC:0030 DE:0014 HL:d6e3 SP:dfdd
33f1  jr   nz,$33ef AF:00c0 BC:0030 DE:0014 HL:d6e3 SP:dfdd
33f3  ret AF:00c0 BC:0030 DE:0014 HL:d6e3 SP:dfdd
3c18  pop  bc AF:00c0 BC:0030 DE:0014 HL:d6e3 SP:dfdf
3c19  ret AF:00c0 BC:0012 DE:0014 HL:d6e3 SP:dfe1
678a  pop  af AF:00c0 BC:0012 DE:0014 HL:d6e3 SP:dfe3
678b  ret AF:7ac0 BC:0012 DE:0014 HL:d6e3 SP:dfe5
6672  ld   a,(hl) AF:7ac0 BC:0012 DE:0014 HL:d6e3 SP:dfe7
6673  and  a,a AF:a6c0 BC:0012 DE:0014 HL:d6e3 SP:dfe7
6674  jr   z,$6692 AF:a620 BC:0012 DE:0014 HL:d6e3 SP:dfe7
6676  ld   ($cd76),a AF:a620 BC:0012 DE:0014 HL:d6e3 SP:dfe7
6679  call $678c AF:a620 BC:0012 DE:0014 HL:d6e3 SP:dfe7
678c  ld   a,$01 AF:a620 BC:0012 DE:0014 HL:d6e3 SP:dfe5
678e  ld   ($cd7d),a AF:0120 BC:0012 DE:0014 HL:d6e3 SP:dfe5
6791  ld   hl,$d19e AF:0120 BC:0012 DE:0014 HL:d6e3 SP:dfe5
6794  call $321d AF:0120 BC:0012 DE:0014 HL:d19e SP:dfe5
321d  push bc AF:0120 BC:0012 DE:0014 HL:d19e SP:dfe3
321e  ld   a,($ff98) AF:0120 BC:0012 DE:0014 HL:d19e SP:dfe1
3220  push af AF:0420 BC:0012 DE:0014 HL:d19e SP:dfe1
3221  ld   a,$03 AF:0420 BC:0012 DE:0014 HL:d19e SP:dfdf
03ae  push af AF:0420 BC:0012 DE:0014 HL:d19e SP:dfdd
03af  ld   a,($ffd0) AF:0420 BC:0012 DE:0014 HL:d19e SP:dfdb
03b1  and  a,a AF:0020 BC:0012 DE:0014 HL:d19e SP:dfdb
03b2  jr   z,$03df AF:00a0 BC:0012 DE:0014 HL:d19e SP:dfdb
03df  pop  af AF:00a0 BC:0012 DE:0014 HL:d19e SP:dfdb
03e0  reti AF:0420 BC:0012 DE:0014 HL:d19e SP:dfdd
3221  ld   a,$03 AF:0420 BC:0012 DE:0014 HL:d19e SP:dfdf
3223  call $3286 AF:0320 BC:0012 DE:0014 HL:d19e SP:dfdf
3286  ld   ($ff98),a AF:0320 BC:0012 DE:0014 HL:d19e SP:dfdd
3288  ld   ($2000),a AF:0320 BC:0012 DE:0014 HL:d19e SP:dfdd
328b  ret AF:0320 BC:0012 DE:0014 HL:d19e SP:dfdd
3226  push hl AF:0320 BC:0012 DE:0014 HL:d19e SP:dfdf
3227  push de AF:0320 BC:0012 DE:0014 HL:d19e SP:dfdd
3228  call $4a89 AF:0320 BC:0012 DE:0014 HL:d19e SP:dfdb
4a89  call $4b44 AF:0320 BC:0012 DE:0014 HL:d19e SP:dfd9
4b44  ld   a,l AF:0320 BC:0012 DE:0014 HL:d19e SP:dfd7
4b45  cp   a,$9e AF:9e20 BC:0012 DE:0014 HL:d19e SP:dfd7
4b47  ret  nz AF:9ec0 BC:0012 DE:0014 HL:d19e SP:dfd7
4b48  ld   a,h AF:9ec0 BC:0012 DE:0014 HL:d19e SP:dfd7
4b49  cp   a,$d1 AF:d1c0 BC:0012 DE:0014 HL:d19e SP:dfd7
4b4b  ret AF:d1c0 BC:0012 DE:0014 HL:d19e SP:dfd7
4a8c  jp   nz,$4b4c AF:d1c0 BC:0012 DE:0014 HL:d19e SP:dfd9
4a8f  push hl AF:d1c0 BC:0012 DE:0014 HL:d19e SP:dfd9
4a90  ld   hl,$53ab AF:d1c0 BC:0012 DE:0014 HL:d19e SP:dfd7
4a93  ld   a,$03 AF:d1c0 BC:0012 DE:0014 HL:53ab SP:dfd7
4a95  call $2f6c AF:03c0 BC:0012 DE:0014 HL:53ab SP:dfd7
2f6c  push af AF:03c0 BC:0012 DE:0014 HL:53ab SP:dfd5
2f6d  ld   a,b AF:03c0 BC:0012 DE:0014 HL:53ab SP:dfd3
2f6e  ld   ($cd54),a AF:00c0 BC:0012 DE:0014 HL:53ab SP:dfd3
2f71  ld   a,c AF:00c0 BC:0012 DE:0014 HL:53ab SP:dfd3
2f72  ld   ($cd55),a AF:12c0 BC:0012 DE:0014 HL:53ab SP:dfd3
2f75  pop  af AF:12c0 BC:0012 DE:0014 HL:53ab SP:dfd3
2f76  ld   b,a AF:03c0 BC:0012 DE:0014 HL:53ab SP:dfd5
03ae  push af AF:03c0 BC:0012 DE:0014 HL:53ab SP:dfd3
03af  ld   a,($ffd0) AF:03c0 BC:0012 DE:0014 HL:53ab SP:dfd1
03b1  and  a,a AF:00c0 BC:0012 DE:0014 HL:53ab SP:dfd1
03b2  jr   z,$03df AF:00a0 BC:0012 DE:0014 HL:53ab SP:dfd1
03df  pop  af AF:00a0 BC:0012 DE:0014 HL:53ab SP:dfd1
03e0  reti AF:03c0 BC:0012 DE:0014 HL:53ab SP:dfd3
2f76  ld   b,a AF:03c0 BC:0012 DE:0014 HL:53ab SP:dfd5
2f77  ld   a,($ff98) AF:03c0 BC:0312 DE:0014 HL:53ab SP:dfd5
2f79  push af AF:03c0 BC:0312 DE:0014 HL:53ab SP:dfd5
2f7a  ld   a,b AF:03c0 BC:0312 DE:0014 HL:53ab SP:dfd3
2f7b  call $3286 AF:03c0 BC:0312 DE:0014 HL:53ab SP:dfd3
3286  ld   ($ff98),a AF:03c0 BC:0312 DE:0014 HL:53ab SP:dfd1
3288  ld   ($2000),a AF:03c0 BC:0312 DE:0014 HL:53ab SP:dfd1
328b  ret AF:03c0 BC:0312 DE:0014 HL:53ab SP:dfd1
2f7e  ld   bc,$2f8c AF:03c0 BC:0312 DE:0014 HL:53ab SP:dfd3
2f81  push bc AF:03c0 BC:2f8c DE:0014 HL:53ab SP:dfd3
2f82  push hl AF:03c0 BC:2f8c DE:0014 HL:53ab SP:dfd1
2f83  ld   a,($cd54) AF:03c0 BC:2f8c DE:0014 HL:53ab SP:dfcf
2f86  ld   b,a AF:00c0 BC:2f8c DE:0014 HL:53ab SP:dfcf
2f87  ld   a,($cd55) AF:00c0 BC:008c DE:0014 HL:53ab SP:dfcf
2f8a  ld   c,a AF:12c0 BC:008c DE:0014 HL:53ab SP:dfcf
2f8b  ret AF:12c0 BC:0012 DE:0014 HL:53ab SP:dfcf
53ab  ld   a,$05 AF:12c0 BC:0012 DE:0014 HL:53ab SP:dfd1
53ad  call $53ce AF:05c0 BC:0012 DE:0014 HL:53ab SP:dfd1
53ce  push hl AF:05c0 BC:0012 DE:0014 HL:53ab SP:dfcf
53cf  push bc AF:05c0 BC:0012 DE:0014 HL:53ab SP:dfcd
53d0  ld   hl,$68f0 AF:05c0 BC:0012 DE:0014 HL:53ab SP:dfcb
53d3  ld   c,a AF:05c0 BC:0012 DE:0014 HL:68f0 SP:dfcb
53d4  ld   b,$00 AF:05c0 BC:0005 DE:0014 HL:68f0 SP:dfcb
53d6  add  hl,bc AF:05c0 BC:0005 DE:0014 HL:68f0 SP:dfcb
53d7  xor  a,a AF:0580 BC:0005 DE:0014 HL:68f5 SP:dfcb
53d8  ld   ($cdba),a AF:0080 BC:0005 DE:0014 HL:68f5 SP:dfcb
53db  ld   a,($cd76) AF:0080 BC:0005 DE:0014 HL:68f5 SP:dfcb
53de  dec  a AF:a680 BC:0005 DE:0014 HL:68f5 SP:dfcb
53df  ld   c,a AF:a540 BC:0005 DE:0014 HL:68f5 SP:dfcb
53e0  ld   a,$07 AF:a540 BC:00a5 DE:0014 HL:68f5 SP:dfcb
53e2  call $33ed AF:0740 BC:00a5 DE:0014 HL:68f5 SP:dfcb
03ae  push af AF:0740 BC:00a5 DE:0014 HL:68f5 SP:dfc9
03af  ld   a,($ffd0) AF:0740 BC:00a5 DE:0014 HL:68f5 SP:dfc7
03b1  and  a,a AF:0040 BC:00a5 DE:0014 HL:68f5 SP:dfc7
03b2  jr   z,$03df AF:00a0 BC:00a5 DE:0014 HL:68f5 SP:dfc7
03df  pop  af AF:00a0 BC:00a5 DE:0014 HL:68f5 SP:dfc7
03e0  reti AF:0740 BC:00a5 DE:0014 HL:68f5 SP:dfc9
53e2  call $33ed AF:0740 BC:00a5 DE:0014 HL:68f5 SP:dfcb
33ed  and  a,a AF:0740 BC:00a5 DE:0014 HL:68f5 SP:dfc9
33ee  ret  z AF:0720 BC:00a5 DE:0014 HL:68f5 SP:dfc9
33ef  add  hl,bc AF:0720 BC:00a5 DE:0014 HL:68f5 SP:dfc9
33f0  dec  a AF:0700 BC:00a5 DE:0014 HL:699a SP:dfc9
33f1  jr   nz,$33ef AF:0640 BC:00a5 DE:0014 HL:699a SP:dfc9
33ef  add  hl,bc AF:0640 BC:00a5 DE:0014 HL:699a SP:dfc9
33f0  dec  a AF:0600 BC:00a5 DE:0014 HL:6a3f SP:dfc9
33f1  jr   nz,$33ef AF:0540 BC:00a5 DE:0014 HL:6a3f SP:dfc9
33ef  add  hl,bc AF:0540 BC:00a5 DE:0014 HL:6a3f SP:dfc9
33f0  dec  a AF:0500 BC:00a5 DE:0014 HL:6ae4 SP:dfc9
33f1  jr   nz,$33ef AF:0440 BC:00a5 DE:0014 HL:6ae4 SP:dfc9
33ef  add  hl,bc AF:0440 BC:00a5 DE:0014 HL:6ae4 SP:dfc9
33f0  dec  a AF:0400 BC:00a5 DE:0014 HL:6b89 SP:dfc9
33f1  jr   nz,$33ef AF:0340 BC:00a5 DE:0014 HL:6b89 SP:dfc9
33ef  add  hl,bc AF:0340 BC:00a5 DE:0014 HL:6b89 SP:dfc9
33f0  dec  a AF:0300 BC:00a5 DE:0014 HL:6c2e SP:dfc9
33f1  jr   nz,$33ef AF:0240 BC:00a5 DE:0014 HL:6c2e SP:dfc9
33ef  add  hl,bc AF:0240 BC:00a5 DE:0014 HL:6c2e SP:dfc9
33f0  dec  a AF:0200 BC:00a5 DE:0014 HL:6cd3 SP:dfc9
33f1  jr   nz,$33ef AF:0140 BC:00a5 DE:0014 HL:6cd3 SP:dfc9
33ef  add  hl,bc AF:0140 BC:00a5 DE:0014 HL:6cd3 SP:dfc9
33f0  dec  a AF:0100 BC:00a5 DE:0014 HL:6d78 SP:dfc9
33f1  jr   nz,$33ef AF:00c0 BC:00a5 DE:0014 HL:6d78 SP:dfc9
33f3  ret AF:00c0 BC:00a5 DE:0014 HL:6d78 SP:dfc9
53e5  ld   a,$01 AF:00c0 BC:00a5 DE:0014 HL:6d78 SP:dfcb
53e7  call $32e5 AF:01c0 BC:00a5 DE:0014 HL:6d78 SP:dfcb
32e5  ld   ($ce3c),a AF:01c0 BC:00a5 DE:0014 HL:6d78 SP:dfc9
32e8  ld   a,($ff98) AF:01c0 BC:00a5 DE:0014 HL:6d78 SP:dfc9
32ea  push af AF:03c0 BC:00a5 DE:0014 HL:6d78 SP:dfc9
32eb  ld   a,($ce3c) AF:03c0 BC:00a5 DE:0014 HL:6d78 SP:dfc7
32ee  call $3286 AF:01c0 BC:00a5 DE:0014 HL:6d78 SP:dfc7
3286  ld   ($ff98),a AF:01c0 BC:00a5 DE:0014 HL:6d78 SP:dfc5
3288  ld   ($2000),a AF:01c0 BC:00a5 DE:0014 HL:6d78 SP:dfc5
03ae  push af AF:01c0 BC:00a5 DE:0014 HL:6d78 SP:dfc3
03af  ld   a,($ffd0) AF:01c0 BC:00a5 DE:0014 HL:6d78 SP:dfc1
03b1  and  a,a AF:00c0 BC:00a5 DE:0014 HL:6d78 SP:dfc1
03b2  jr   z,$03df AF:00a0 BC:00a5 DE:0014 HL:6d78 SP:dfc1
03df  pop  af AF:00a0 BC:00a5 DE:0014 HL:6d78 SP:dfc1
03e0  reti AF:01c0 BC:00a5 DE:0014 HL:6d78 SP:dfc3
3288  ld   ($2000),a AF:01c0 BC:00a5 DE:0014 HL:6d78 SP:dfc5
328b  ret AF:01c0 BC:00a5 DE:0014 HL:6d78 SP:dfc5
32f1  ld   a,(hl) AF:01c0 BC:00a5 DE:0014 HL:6d78 SP:dfc7
32f2  ld   ($ce3c),a AF:00c0 BC:00a5 DE:0014 HL:6d78 SP:dfc7
32f5  pop  af AF:00c0 BC:00a5 DE:0014 HL:6d78 SP:dfc7
32f6  call $3286 AF:03c0 BC:00a5 DE:0014 HL:6d78 SP:dfc9
3286  ld   ($ff98),a AF:03c0 BC:00a5 DE:0014 HL:6d78 SP:dfc7
3288  ld   ($2000),a AF:03c0 BC:00a5 DE:0014 HL:6d78 SP:dfc7
328b  ret AF:03c0 BC:00a5 DE:0014 HL:6d78 SP:dfc7
32f9  ld   a,($ce3c) AF:03c0 BC:00a5 DE:0014 HL:6d78 SP:dfc9
32fc  ret AF:00c0 BC:00a5 DE:0014 HL:6d78 SP:dfc9
53ea  pop  bc AF:00c0 BC:00a5 DE:0014 HL:6d78 SP:dfcb
53eb  pop  hl AF:00c0 BC:0012 DE:0014 HL:6d78 SP:dfcd
53ec  ret AF:00c0 BC:0012 DE:0014 HL:53ab SP:dfcf
53b0  and  a,$0f AF:00c0 BC:0012 DE:0014 HL:53ab SP:dfd1
53b2  ld   ($cdba),a AF:00a0 BC:0012 DE:0014 HL:53ab SP:dfd1
53b5  ret AF:00a0 BC:0012 DE:0014 HL:53ab SP:dfd1
2f8c  ld   a,b AF:00a0 BC:0012 DE:0014 HL:53ab SP:dfd3
2f8d  ld   ($cd54),a AF:00a0 BC:0012 DE:0014 HL:53ab SP:dfd3
2f90  ld   a,c AF:00a0 BC:0012 DE:0014 HL:53ab SP:dfd3
2f91  ld   ($cd55),a AF:12a0 BC:0012 DE:0014 HL:53ab SP:dfd3
2f94  pop  bc AF:12a0 BC:0012 DE:0014 HL:53ab SP:dfd3
2f95  ld   a,b AF:12a0 BC:03c0 DE:0014 HL:53ab SP:dfd5
2f96  call $3286 AF:03a0 BC:03c0 DE:0014 HL:53ab SP:dfd5
3286  ld   ($ff98),a AF:03a0 BC:03c0 DE:0014 HL:53ab SP:dfd3
3288  ld   ($2000),a AF:03a0 BC:03c0 DE:0014 HL:53ab SP:dfd3
328b  ret AF:03a0 BC:03c0 DE:0014 HL:53ab SP:dfd3
03ae  push af AF:03a0 BC:03c0 DE:0014 HL:53ab SP:dfd1
03af  ld   a,($ffd0) AF:03a0 BC:03c0 DE:0014 HL:53ab SP:dfcf
03b1  and  a,a AF:00a0 BC:03c0 DE:0014 HL:53ab SP:dfcf
03b2  jr   z,$03df AF:00a0 BC:03c0 DE:0014 HL:53ab SP:dfcf
03df  pop  af AF:00a0 BC:03c0 DE:0014 HL:53ab SP:dfcf
03e0  reti AF:03a0 BC:03c0 DE:0014 HL:53ab SP:dfd1
328b  ret AF:03a0 BC:03c0 DE:0014 HL:53ab SP:dfd3
2f99  ld   a,($cd54) AF:03a0 BC:03c0 DE:0014 HL:53ab SP:dfd5
2f9c  ld   b,a AF:00a0 BC:03c0 DE:0014 HL:53ab SP:dfd5
2f9d  ld   a,($cd55) AF:00a0 BC:00c0 DE:0014 HL:53ab SP:dfd5
2fa0  ld   c,a AF:12a0 BC:00c0 DE:0014 HL:53ab SP:dfd5
2fa1  ret AF:12a0 BC:0012 DE:0014 HL:53ab SP:dfd5
4a98  ld   a,($cdba) AF:12a0 BC:0012 DE:0014 HL:53ab SP:dfd7
4a9b  dec  a AF:00a0 BC:0012 DE:0014 HL:53ab SP:dfd7
4a9c  ld   hl,$4aa2 AF:ff60 BC:0012 DE:0014 HL:53ab SP:dfd7
4a9f  jp   $3591 AF:ff60 BC:0012 DE:0014 HL:4aa2 SP:dfd7
3591  push de AF:ff60 BC:0012 DE:0014 HL:4aa2 SP:dfd7
3592  ld   d,$00 AF:ff60 BC:0012 DE:0014 HL:4aa2 SP:dfd5
3594  ld   e,a AF:ff60 BC:0012 DE:0014 HL:4aa2 SP:dfd5
3595  add  hl,de AF:ff60 BC:0012 DE:00ff HL:4aa2 SP:dfd5
3596  add  hl,de AF:ff00 BC:0012 DE:00ff HL:4ba1 SP:dfd5
3597  pop  de AF:ff00 BC:0012 DE:00ff HL:4ca0 SP:dfd5
3598  ldi  a,(hl) AF:ff00 BC:0012 DE:0014 HL:4ca0 SP:dfd7
3599  ld   h,(hl) AF:7700 BC:0012 DE:0014 HL:4ca1 SP:dfd7
359a  ld   l,a AF:7700 BC:0012 DE:0014 HL:eaa1 SP:dfd7
359b  jp   hl AF:7700 BC:0012 DE:0014 HL:ea77 SP:dfd7
ea77  nop AF:7700 BC:0012 DE:0014 HL:ea77 SP:dfd7
ea78  nop AF:7700 BC:0012 DE:0014 HL:ea77 SP:dfd7
ea79  nop AF:7700 BC:0012 DE:0014 HL:ea77 SP:dfd7
ea7a  nop AF:7700 BC:0012 DE:0014 HL:ea77 SP:dfd7
ea7b  nop AF:7700 BC:0012 DE:0014 HL:ea77 SP:dfd7
ea7c  nop AF:7700 BC:0012 DE:0014 HL:ea77 SP:dfd7
ea7d  nop AF:7700 BC:0012 DE:0014 HL:ea77 SP:dfd7
ea7e  nop AF:7700 BC:0012 DE:0014 HL:ea77 SP:dfd7
ea7f  nop AF:7700 BC:0012 DE:0014 HL:ea77 SP:dfd7
ea80  nop AF:7700 BC:0012 DE:0014 HL:ea77 SP:dfd7
ea81  nop AF:7700 BC:0012 DE:0014 HL:ea77 SP:dfd7
ea82  nop AF:7700 BC:0012 DE:0014 HL:ea77 SP:dfd7
ea83  nop AF:7700 BC:0012 DE:0014 HL:ea77 SP:dfd7
ea84  nop AF:7700 BC:0012 DE:0014 HL:ea77 SP:dfd7
ea85  nop AF:7700 BC:0012 DE:0014 HL:ea77 SP:dfd7
ea86  nop AF:7700 BC:0012 DE:0014 HL:ea77 SP:dfd7
ea87  nop AF:7700 BC:0012 DE:0014 HL:ea77 SP:dfd7
ea88  nop AF:7700 BC:0012 DE:0014 HL:ea77 SP:dfd7
ea89  nop AF:7700 BC:0012 DE:0014 HL:ea77 SP:dfd7
ea8a  nop AF:7700 BC:0012 DE:0014 HL:ea77 SP:dfd7
ea8b  nop AF:7700 BC:0012 DE:0014 HL:ea77 SP:dfd7
ea8c  nop AF:7700 BC:0012 DE:0014 HL:ea77 SP:dfd7
ea8d  nop AF:7700 BC:0012 DE:0014 HL:ea77 SP:dfd7
ea8e  nop AF:7700 BC:0012 DE:0014 HL:ea77 SP:dfd7
ea8f  nop AF:7700 BC:0012 DE:0014 HL:ea77 SP:dfd7
ea90  nop AF:7700 BC:0012 DE:0014 HL:ea77 SP:dfd7
ea91  nop AF:7700 BC:0012 DE:0014 HL:ea77 SP:dfd7
ea92  nop AF:7700 BC:0012 DE:0014 HL:ea77 SP:dfd7
ea93  nop AF:7700 BC:0012 DE:0014 HL:ea77 SP:dfd7
ea94  nop AF:7700 BC:0012 DE:0014 HL:ea77 SP:dfd7
ea95  nop AF:7700 BC:0012 DE:0014 HL:ea77 SP:dfd7
ea96  nop AF:7700 BC:0012 DE:0014 HL:ea77 SP:dfd7
ea97  nop AF:7700 BC:0012 DE:0014 HL:ea77 SP:dfd7
ea98  nop AF:7700 BC:0012 DE:0014 HL:ea77 SP:dfd7
ea99  nop AF:7700 BC:0012 DE:0014 HL:ea77 SP:dfd7
ea9a  nop AF:7700 BC:0012 DE:0014 HL:ea77 SP:dfd7
03ae  push af AF:7700 BC:0012 DE:0014 HL:ea77 SP:dfd5
03af  ld   a,($ffd0) AF:7700 BC:0012 DE:0014 HL:ea77 SP:dfd3
03b1  and  a,a AF:0000 BC:0012 DE:0014 HL:ea77 SP:dfd3
03b2  jr   z,$03df AF:00a0 BC:0012 DE:0014 HL:ea77 SP:dfd3
03df  pop  af AF:00a0 BC:0012 DE:0014 HL:ea77 SP:dfd3
03e0  reti AF:7700 BC:0012 DE:0014 HL:ea77 SP:dfd5
ea9a  nop AF:7700 BC:0012 DE:0014 HL:ea77 SP:dfd7
ea9b  nop AF:7700 BC:0012 DE:0014 HL:ea77 SP:dfd7
ea9c  nop AF:7700 BC:0012 DE:0014 HL:ea77 SP:dfd7
ea9d  nop AF:7700 BC:0012 DE:0014 HL:ea77 SP:dfd7
ea9e  nop AF:7700 BC:0012 DE:0014 HL:ea77 SP:dfd7
ea9f  nop AF:7700 BC:0012 DE:0014 HL:ea77 SP:dfd7
eaa0  nop AF:7700 BC:0012 DE:0014 HL:ea77 SP:dfd7
eaa1  nop AF:7700 BC:0012 DE:0014 HL:ea77 SP:dfd7
eaa2  nop AF:7700 BC:0012 DE:0014 HL:ea77 SP:dfd7
eaa3  nop AF:7700 BC:0012 DE:0014 HL:ea77 SP:dfd7
eaa4  nop AF:7700 BC:0012 DE:0014 HL:ea77 SP:dfd7
eaa5  nop AF:7700 BC:0012 DE:0014 HL:ea77 SP:dfd7
eaa6  nop AF:7700 BC:0012 DE:0014 HL:ea77 SP:dfd7
eaa7  nop AF:7700 BC:0012 DE:0014 HL:ea77 SP:dfd7
eaa8  nop AF:7700 BC:0012 DE:0014 HL:ea77 SP:dfd7
eaa9  nop AF:7700 BC:0012 DE:0014 HL:ea77 SP:dfd7
eaaa  nop AF:7700 BC:0012 DE:0014 HL:ea77 SP:dfd7
eaab  nop AF:7700 BC:0012 DE:0014 HL:ea77 SP:dfd7
eaac  nop AF:7700 BC:0012 DE:0014 HL:ea77 SP:dfd7
eaad  nop AF:7700 BC:0012 DE:0014 HL:ea77 SP:dfd7
eaae  nop AF:7700 BC:0012 DE:0014 HL:ea77 SP:dfd7
eaaf  nop AF:7700 BC:0012 DE:0014 HL:ea77 SP:dfd7
eab0  nop AF:7700 BC:0012 DE:0014 HL:ea77 SP:dfd7
eab1  nop AF:7700 BC:0012 DE:0014 HL:ea77 SP:dfd7
eab2  nop AF:7700 BC:0012 DE:0014 HL:ea77 SP:dfd7
eab3  nop AF:7700 BC:0012 DE:0014 HL:ea77 SP:dfd7
eab4  nop AF:7700 BC:0012 DE:0014 HL:ea77 SP:dfd7
eab5  nop AF:7700 BC:0012 DE:0014 HL:ea77 SP:dfd7
eab6  nop AF:7700 BC:0012 DE:0014 HL:ea77 SP:dfd7
eab7  nop AF:7700 BC:0012 DE:0014 HL:ea77 SP:dfd7
eab8  nop AF:7700 BC:0012 DE:0014 HL:ea77 SP:dfd7
eab9  nop AF:7700 BC:0012 DE:0014 HL:ea77 SP:dfd7
eaba  nop AF:7700 BC:0012 DE:0014 HL:ea77 SP:dfd7
eabb  nop AF:7700 BC:0012 DE:0014 HL:ea77 SP:dfd7
eabc  nop AF:7700 BC:0012 DE:0014 HL:ea77 SP:dfd7
eabd  nop AF:7700 BC:0012 DE:0014 HL:ea77 SP:dfd7
eabe  nop AF:7700 BC:0012 DE:0014 HL:ea77 SP:dfd7
eabf  nop AF:7700 BC:0012 DE:0014 HL:ea77 SP:dfd7
eac0  nop AF:7700 BC:0012 DE:0014 HL:ea77 SP:dfd7
eac1  nop AF:7700 BC:0012 DE:0014 HL:ea77 SP:dfd7
eac2  nop AF:7700 BC:0012 DE:0014 HL:ea77 SP:dfd7
eac3  nop AF:7700 BC:0012 DE:0014 HL:ea77 SP:dfd7
eac4  nop AF:7700 BC:0012 DE:0014 HL:ea77 SP:dfd7
eac5  nop AF:7700 BC:0012 DE:0014 HL:ea77 SP:dfd7
eac6  nop AF:7700 BC:0012 DE:0014 HL:ea77 SP:dfd7
eac7  nop AF:7700 BC:0012 DE:0014 HL:ea77 SP:dfd7
eac8  nop AF:7700 BC:0012 DE:0014 HL:ea77 SP:dfd7
eac9  nop AF:7700 BC:0012 DE:0014 HL:ea77 SP:dfd7
eaca  nop AF:7700 BC:0012 DE:0014 HL:ea77 SP:dfd7
eacb  nop AF:7700 BC:0012 DE:0014 HL:ea77 SP:dfd7
eacc  nop AF:7700 BC:0012 DE:0014 HL:ea77 SP:dfd7
eacd  nop AF:7700 BC:0012 DE:0014 HL:ea77 SP:dfd7
eace  nop AF:7700 BC:0012 DE:0014 HL:ea77 SP:dfd7
eacf  nop AF:7700 BC:0012 DE:0014 HL:ea77 SP:dfd7
ead0  nop AF:7700 BC:0012 DE:0014 HL:ea77 SP:dfd7
ead1  nop AF:7700 BC:0012 DE:0014 HL:ea77 SP:dfd7
ead2  nop AF:7700 BC:0012 DE:0014 HL:ea77 SP:dfd7
ead3  nop AF:7700 BC:0012 DE:0014 HL:ea77 SP:dfd7
ead4  nop AF:7700 BC:0012 DE:0014 HL:ea77 SP:dfd7
ead5  nop AF:7700 BC:0012 DE:0014 HL:ea77 SP:dfd7
ead6  nop AF:7700 BC:0012 DE:0014 HL:ea77 SP:dfd7
ead7  nop AF:7700 BC:0012 DE:0014 HL:ea77 SP:dfd7
ead8  nop AF:7700 BC:0012 DE:0014 HL:ea77 SP:dfd7
ead9  nop AF:7700 BC:0012 DE:0014 HL:ea77 SP:dfd7
eada  nop AF:7700 BC:0012 DE:0014 HL:ea77 SP:dfd7
eadb  nop AF:7700 BC:0012 DE:0014 HL:ea77 SP:dfd7
eadc  nop AF:7700 BC:0012 DE:0014 HL:ea77 SP:dfd7
eadd  nop AF:7700 BC:0012 DE:0014 HL:ea77 SP:dfd7
eade  nop AF:7700 BC:0012 DE:0014 HL:ea77 SP:dfd7
eadf  nop AF:7700 BC:0012 DE:0014 HL:ea77 SP:dfd7
eae0  nop AF:7700 BC:0012 DE:0014 HL:ea77 SP:dfd7
eae1  nop AF:7700 BC:0012 DE:0014 HL:ea77 SP:dfd7
eae2  nop AF:7700 BC:0012 DE:0014 HL:ea77 SP:dfd7
eae3  nop AF:7700 BC:0012 DE:0014 HL:ea77 SP:dfd7
eae4  nop AF:7700 BC:0012 DE:0014 HL:ea77 SP:dfd7
eae5  nop AF:7700 BC:0012 DE:0014 HL:ea77 SP:dfd7
eae6  nop AF:7700 BC:0012 DE:0014 HL:ea77 SP:dfd7
eae7  nop AF:7700 BC:0012 DE:0014 HL:ea77 SP:dfd7
eae8  nop AF:7700 BC:0012 DE:0014 HL:ea77 SP:dfd7
eae9  nop AF:7700 BC:0012 DE:0014 HL:ea77 SP:dfd7
eaea  nop AF:7700 BC:0012 DE:0014 HL:ea77 SP:dfd7
eaeb  nop AF:7700 BC:0012 DE:0014 HL:ea77 SP:dfd7
eaec  nop AF:7700 BC:0012 DE:0014 HL:ea77 SP:dfd7
eaed  nop AF:7700 BC:0012 DE:0014 HL:ea77 SP:dfd7
eaee  nop AF:7700 BC:0012 DE:0014 HL:ea77 SP:dfd7
eaef  nop AF:7700 BC:0012 DE:0014 HL:ea77 SP:dfd7
eaf0  nop AF:7700 BC:0012 DE:0014 HL:ea77 SP:dfd7
eaf1  nop AF:7700 BC:0012 DE:0014 HL:ea77 SP:dfd7
03ae  push af AF:7700 BC:0012 DE:0014 HL:ea77 SP:dfd5
03af  ld   a,($ffd0) AF:7700 BC:0012 DE:0014 HL:ea77 SP:dfd3
03b1  and  a,a AF:0000 BC:0012 DE:0014 HL:ea77 SP:dfd3
03b2  jr   z,$03df AF:00a0 BC:0012 DE:0014 HL:ea77 SP:dfd3
03df  pop  af AF:00a0 BC:0012 DE:0014 HL:ea77 SP:dfd3
03e0  reti AF:7700 BC:0012 DE:0014 HL:ea77 SP:dfd5
eaf1  nop AF:7700 BC:0012 DE:0014 HL:ea77 SP:dfd7
eaf2  nop AF:7700 BC:0012 DE:0014 HL:ea77 SP:dfd7
eaf3  nop AF:7700 BC:0012 DE:0014 HL:ea77 SP:dfd7
eaf4  nop AF:7700 BC:0012 DE:0014 HL:ea77 SP:dfd7
eaf5  nop AF:7700 BC:0012 DE:0014 HL:ea77 SP:dfd7
eaf6  nop AF:7700 BC:0012 DE:0014 HL:ea77 SP:dfd7
eaf7  nop AF:7700 BC:0012 DE:0014 HL:ea77 SP:dfd7
eaf8  nop AF:7700 BC:0012 DE:0014 HL:ea77 SP:dfd7
eaf9  nop AF:7700 BC:0012 DE:0014 HL:ea77 SP:dfd7
eafa  nop AF:7700 BC:0012 DE:0014 HL:ea77 SP:dfd7
eafb  nop AF:7700 BC:0012 DE:0014 HL:ea77 SP:dfd7
eafc  nop AF:7700 BC:0012 DE:0014 HL:ea77 SP:dfd7
eafd  nop AF:7700 BC:0012 DE:0014 HL:ea77 SP:dfd7
eafe  nop AF:7700 BC:0012 DE:0014 HL:ea77 SP:dfd7
eaff  nop AF:7700 BC:0012 DE:0014 HL:ea77 SP:dfd7
eb00  nop AF:7700 BC:0012 DE:0014 HL:ea77 SP:dfd7
eb01  nop AF:7700 BC:0012 DE:0014 HL:ea77 SP:dfd7
eb02  nop AF:7700 BC:0012 DE:0014 HL:ea77 SP:dfd7
eb03  nop AF:7700 BC:0012 DE:0014 HL:ea77 SP:dfd7
eb04  nop AF:7700 BC:0012 DE:0014 HL:ea77 SP:dfd7
eb05  nop AF:7700 BC:0012 DE:0014 HL:ea77 SP:dfd7
eb06  nop AF:7700 BC:0012 DE:0014 HL:ea77 SP:dfd7
eb07  nop AF:7700 BC:0012 DE:0014 HL:ea77 SP:dfd7
eb08  nop AF:7700 BC:0012 DE:0014 HL:ea77 SP:dfd7
eb09  nop AF:7700 BC:0012 DE:0014 HL:ea77 SP:dfd7
eb0a  nop AF:7700 BC:0012 DE:0014 HL:ea77 SP:dfd7
eb0b  nop AF:7700 BC:0012 DE:0014 HL:ea77 SP:dfd7
eb0c  nop AF:7700 BC:0012 DE:0014 HL:ea77 SP:dfd7
eb0d  nop AF:7700 BC:0012 DE:0014 HL:ea77 SP:dfd7
eb0e  nop AF:7700 BC:0012 DE:0014 HL:ea77 SP:dfd7
eb0f  nop AF:7700 BC:0012 DE:0014 HL:ea77 SP:dfd7
eb10  nop AF:7700 BC:0012 DE:0014 HL:ea77 SP:dfd7
eb11  nop AF:7700 BC:0012 DE:0014 HL:ea77 SP:dfd7
eb12  nop AF:7700 BC:0012 DE:0014 HL:ea77 SP:dfd7
eb13  nop AF:7700 BC:0012 DE:0014 HL:ea77 SP:dfd7
eb14  nop AF:7700 BC:0012 DE:0014 HL:ea77 SP:dfd7
eb15  nop AF:7700 BC:0012 DE:0014 HL:ea77 SP:dfd7
eb16  nop AF:7700 BC:0012 DE:0014 HL:ea77 SP:dfd7
eb17  nop AF:7700 BC:0012 DE:0014 HL:ea77 SP:dfd7
eb18  nop AF:7700 BC:0012 DE:0014 HL:ea77 SP:dfd7
eb19  nop AF:7700 BC:0012 DE:0014 HL:ea77 SP:dfd7
eb1a  dec  b AF:7700 BC:0012 DE:0014 HL:ea77 SP:dfd7
eb1b  dec  b AF:7760 BC:ff12 DE:0014 HL:ea77 SP:dfd7
eb1c  dec  b AF:7740 BC:fe12 DE:0014 HL:ea77 SP:dfd7
eb1d  dec  b AF:7740 BC:fd12 DE:0014 HL:ea77 SP:dfd7
eb1e  dec  b AF:7740 BC:fc12 DE:0014 HL:ea77 SP:dfd7
eb1f  dec  b AF:7740 BC:fb12 DE:0014 HL:ea77 SP:dfd7
eb20  dec  b AF:7740 BC:fa12 DE:0014 HL:ea77 SP:dfd7
eb21  dec  b AF:7740 BC:f912 DE:0014 HL:ea77 SP:dfd7
eb22  dec  b AF:7740 BC:f812 DE:0014 HL:ea77 SP:dfd7
eb23  dec  b AF:7740 BC:f712 DE:0014 HL:ea77 SP:dfd7
eb24  dec  b AF:7740 BC:f612 DE:0014 HL:ea77 SP:dfd7
eb25  dec  b AF:7740 BC:f512 DE:0014 HL:ea77 SP:dfd7
eb26  jr   nc,$eb59 AF:7740 BC:f412 DE:0014 HL:ea77 SP:dfd7
eb59  nop AF:7740 BC:f412 DE:0014 HL:ea77 SP:dfd7
eb5a  nop AF:7740 BC:f412 DE:0014 HL:ea77 SP:dfd7
eb5b  pop  bc AF:7740 BC:f412 DE:0014 HL:ea77 SP:dfd7
eb5c  ld   (bc),a AF:7740 BC:d19e DE:0014 HL:ea77 SP:dfd9
eb5d  nop AF:7740 BC:d19e DE:0014 HL:ea77 SP:dfd9
eb5e  ld   de,$0000 AF:7740 BC:d19e DE:0014 HL:ea77 SP:dfd9
eb61  nop AF:7740 BC:d19e DE:0000 HL:ea77 SP:dfd9
eb62  nop AF:7740 BC:d19e DE:0000 HL:ea77 SP:dfd9
eb63  call z,$0066 AF:7740 BC:d19e DE:0000 HL:ea77 SP:dfd9
eb66  add  a,c AF:7740 BC:d19e DE:0000 HL:ea77 SP:dfd9
eb67  nop AF:1530 BC:d19e DE:0000 HL:ea77 SP:dfd9
eb68  ldi  a,(hl) AF:1530 BC:d19e DE:0000 HL:ea77 SP:dfd9
eb69  ld   d,e AF:0030 BC:d19e DE:0000 HL:ea78 SP:dfd9
eb6a  nop AF:0030 BC:d19e DE:0000 HL:ea78 SP:dfd9
eb6b  sbc  a,b AF:0030 BC:d19e DE:0000 HL:ea78 SP:dfd9
eb6c  nop AF:2e70 BC:d19e DE:0000 HL:ea78 SP:dfd9
eb6d  cp   a,$60 AF:2e70 BC:d19e DE:0000 HL:ea78 SP:dfd9
eb6f  ld   bc,$0000 AF:2e50 BC:d19e DE:0000 HL:ea78 SP:dfd9
eb72  rrc  a AF:2e50 BC:0000 DE:0000 HL:ea78 SP:dfd9
eb73  ld   b,l AF:1700 BC:0000 DE:0000 HL:ea78 SP:dfd9
eb74  ret  nc AF:1700 BC:7800 DE:0000 HL:ea78 SP:dfd9
03ae  push af AF:1700 BC:7800 DE:0000 HL:ea78 SP:dfd7
03af  ld   a,($ffd0) AF:1700 BC:7800 DE:0000 HL:ea78 SP:dfd5
03b1  and  a,a AF:0000 BC:7800 DE:0000 HL:ea78 SP:dfd5
03b2  jr   z,$03df AF:00a0 BC:7800 DE:0000 HL:ea78 SP:dfd5
03df  pop  af AF:00a0 BC:7800 DE:0000 HL:ea78 SP:dfd5
03e0  reti AF:1700 BC:7800 DE:0000 HL:ea78 SP:dfd7
eb74  ret  nc AF:1700 BC:7800 DE:0000 HL:ea78 SP:dfd9
322b  pop  de AF:1700 BC:7800 DE:0000 HL:ea78 SP:dfdb
322c  pop  hl AF:1700 BC:7800 DE:0014 HL:ea78 SP:dfdd
322d  pop  bc AF:1700 BC:7800 DE:0014 HL:d19e SP:dfdf
322e  ld   a,b AF:1700 BC:0420 DE:0014 HL:d19e SP:dfe1
322f  call $3286 AF:0400 BC:0420 DE:0014 HL:d19e SP:dfe1
3286  ld   ($ff98),a AF:0400 BC:0420 DE:0014 HL:d19e SP:dfdf
3288  ld   ($2000),a AF:0400 BC:0420 DE:0014 HL:d19e SP:dfdf
328b  ret AF:0400 BC:0420 DE:0014 HL:d19e SP:dfdf
3232  pop  bc AF:0400 BC:0420 DE:0014 HL:d19e SP:dfe1
3233  ret AF:0400 BC:0012 DE:0014 HL:d19e SP:dfe3
6797  ret AF:0400 BC:0012 DE:0014 HL:d19e SP:dfe5
667c  jr   nc,$669a AF:0400 BC:0012 DE:0014 HL:d19e SP:dfe7
669a  ld   hl,$6724 AF:0400 BC:0012 DE:0014 HL:d19e SP:dfe7
669d  call $1d6d AF:0400 BC:0012 DE:0014 HL:6724 SP:dfe7
1d6d  call $1d59 AF:0400 BC:0012 DE:0014 HL:6724 SP:dfe5
1d59  push hl AF:0400 BC:0012 DE:0014 HL:6724 SP:dfe3
1d5a  ld   hl,$1d65 AF:0400 BC:0012 DE:0014 HL:6724 SP:dfe1
1d5d  call $1d49 AF:0400 BC:0012 DE:0014 HL:1d65 SP:dfe1
1d49  call $1d50 AF:0400 BC:0012 DE:0014 HL:1d65 SP:dfdf
1d50  ld   de,$cc02 AF:0400 BC:0012 DE:0014 HL:1d65 SP:dfdd
1d53  ld   bc,$0010 AF:0400 BC:0012 DE:cc02 HL:1d65 SP:dfdd
1d56  jp   $32ce AF:0400 BC:0010 DE:cc02 HL:1d65 SP:dfdd
32ce  ld   a,b AF:0400 BC:0010 DE:cc02 HL:1d65 SP:dfdd
03ae  push af AF:0400 BC:0010 DE:cc02 HL:1d65 SP:dfdb
03af  ld   a,($ffd0) AF:0400 BC:0010 DE:cc02 HL:1d65 SP:dfd9
03b1  and  a,a AF:0000 BC:0010 DE:cc02 HL:1d65 SP:dfd9
03b2  jr   z,$03df AF:00a0 BC:0010 DE:cc02 HL:1d65 SP:dfd9
03df  pop  af AF:00a0 BC:0010 DE:cc02 HL:1d65 SP:dfd9
03e0  reti AF:0400 BC:0010 DE:cc02 HL:1d65 SP:dfdb
32ce  ld   a,b AF:0400 BC:0010 DE:cc02 HL:1d65 SP:dfdd
32cf  and  a,a AF:0000 BC:0010 DE:cc02 HL:1d65 SP:dfdd
32d0  jr   z,$32de AF:00a0 BC:0010 DE:cc02 HL:1d65 SP:dfdd
32de  ldi  a,(hl) AF:00a0 BC:0010 DE:cc02 HL:1d65 SP:dfdd
32df  ld   (de),a AF:40a0 BC:0010 DE:cc02 HL:1d66 SP:dfdd
32e0  inc  de AF:40a0 BC:0010 DE:cc02 HL:1d66 SP:dfdd
32e1  dec  c AF:40a0 BC:0010 DE:cc03 HL:1d66 SP:dfdd
32e2  jr   nz,$32de AF:4060 BC:000f DE:cc03 HL:1d66 SP:dfdd
32de  ldi  a,(hl) AF:4060 BC:000f DE:cc03 HL:1d66 SP:dfdd
32df  ld   (de),a AF:0c60 BC:000f DE:cc03 HL:1d67 SP:dfdd
32e0  inc  de AF:0c60 BC:000f DE:cc03 HL:1d67 SP:dfdd
32e1  dec  c AF:0c60 BC:000f DE:cc04 HL:1d67 SP:dfdd
32e2  jr   nz,$32de AF:0c40 BC:000e DE:cc04 HL:1d67 SP:dfdd
32de  ldi  a,(hl) AF:0c40 BC:000e DE:cc04 HL:1d67 SP:dfdd
32df  ld   (de),a AF:0040 BC:000e DE:cc04 HL:1d68 SP:dfdd
32e0  inc  de AF:0040 BC:000e DE:cc04 HL:1d68 SP:dfdd
32e1  dec  c AF:0040 BC:000e DE:cc05 HL:1d68 SP:dfdd
32e2  jr   nz,$32de AF:0040 BC:000d DE:cc05 HL:1d68 SP:dfdd
32de  ldi  a,(hl) AF:0040 BC:000d DE:cc05 HL:1d68 SP:dfdd
32df  ld   (de),a AF:1140 BC:000d DE:cc05 HL:1d69 SP:dfdd
32e0  inc  de AF:1140 BC:000d DE:cc05 HL:1d69 SP:dfdd
32e1  dec  c AF:1140 BC:000d DE:cc06 HL:1d69 SP:dfdd
32e2  jr   nz,$32de AF:1140 BC:000c DE:cc06 HL:1d69 SP:dfdd
32de  ldi  a,(hl) AF:1140 BC:000c DE:cc06 HL:1d69 SP:dfdd
32df  ld   (de),a AF:1340 BC:000c DE:cc06 HL:1d6a SP:dfdd
32e0  inc  de AF:1340 BC:000c DE:cc06 HL:1d6a SP:dfdd
32e1  dec  c AF:1340 BC:000c DE:cc07 HL:1d6a SP:dfdd
32e2  jr   nz,$32de AF:1340 BC:000b DE:cc07 HL:1d6a SP:dfdd
32de  ldi  a,(hl) AF:1340 BC:000b DE:cc07 HL:1d6a SP:dfdd
32df  ld   (de),a AF:0040 BC:000b DE:cc07 HL:1d6b SP:dfdd
32e0  inc  de AF:0040 BC:000b DE:cc07 HL:1d6b SP:dfdd
32e1  dec  c AF:0040 BC:000b DE:cc08 HL:1d6b SP:dfdd
32e2  jr   nz,$32de AF:0040 BC:000a DE:cc08 HL:1d6b SP:dfdd
32de  ldi  a,(hl) AF:0040 BC:000a DE:cc08 HL:1d6b SP:dfdd
32df  ld   (de),a AF:8040 BC:000a DE:cc08 HL:1d6c SP:dfdd
32e0  inc  de AF:8040 BC:000a DE:cc08 HL:1d6c SP:dfdd
32e1  dec  c AF:8040 BC:000a DE:cc09 HL:1d6c SP:dfdd
32e2  jr   nz,$32de AF:8040 BC:0009 DE:cc09 HL:1d6c SP:dfdd
32de  ldi  a,(hl) AF:8040 BC:0009 DE:cc09 HL:1d6c SP:dfdd
32df  ld   (de),a AF:0040 BC:0009 DE:cc09 HL:1d6d SP:dfdd
32e0  inc  de AF:0040 BC:0009 DE:cc09 HL:1d6d SP:dfdd
32e1  dec  c AF:0040 BC:0009 DE:cc0a HL:1d6d SP:dfdd
32e2  jr   nz,$32de AF:0040 BC:0008 DE:cc0a HL:1d6d SP:dfdd
32de  ldi  a,(hl) AF:0040 BC:0008 DE:cc0a HL:1d6d SP:dfdd
03ae  push af AF:0040 BC:0008 DE:cc0a HL:1d6d SP:dfdb
03af  ld   a,($ffd0) AF:0040 BC:0008 DE:cc0a HL:1d6d SP:dfd9
03b1  and  a,a AF:0040 BC:0008 DE:cc0a HL:1d6d SP:dfd9
03b2  jr   z,$03df AF:00a0 BC:0008 DE:cc0a HL:1d6d SP:dfd9
03df  pop  af AF:00a0 BC:0008 DE:cc0a HL:1d6d SP:dfd9
03e0  reti AF:0040 BC:0008 DE:cc0a HL:1d6d SP:dfdb
32de  ldi  a,(hl) AF:0040 BC:0008 DE:cc0a HL:1d6d SP:dfdd
32df  ld   (de),a AF:cd40 BC:0008 DE:cc0a HL:1d6e SP:dfdd
32e0  inc  de AF:cd40 BC:0008 DE:cc0a HL:1d6e SP:dfdd
32e1  dec  c AF:cd40 BC:0008 DE:cc0b HL:1d6e SP:dfdd
32e2  jr   nz,$32de AF:cd40 BC:0007 DE:cc0b HL:1d6e SP:dfdd
32de  ldi  a,(hl) AF:cd40 BC:0007 DE:cc0b HL:1d6e SP:dfdd
32df  ld   (de),a AF:5940 BC:0007 DE:cc0b HL:1d6f SP:dfdd
32e0  inc  de AF:5940 BC:0007 DE:cc0b HL:1d6f SP:dfdd
32e1  dec  c AF:5940 BC:0007 DE:cc0c HL:1d6f SP:dfdd
32e2  jr   nz,$32de AF:5940 BC:0006 DE:cc0c HL:1d6f SP:dfdd
32de  ldi  a,(hl) AF:5940 BC:0006 DE:cc0c HL:1d6f SP:dfdd
32df  ld   (de),a AF:1d40 BC:0006 DE:cc0c HL:1d70 SP:dfdd
32e0  inc  de AF:1d40 BC:0006 DE:cc0c HL:1d70 SP:dfdd
32e1  dec  c AF:1d40 BC:0006 DE:cc0d HL:1d70 SP:dfdd
32e2  jr   nz,$32de AF:1d40 BC:0005 DE:cc0d HL:1d70 SP:dfdd
32de  ldi  a,(hl) AF:1d40 BC:0005 DE:cc0d HL:1d70 SP:dfdd
32df  ld   (de),a AF:cd40 BC:0005 DE:cc0d HL:1d71 SP:dfdd
32e0  inc  de AF:cd40 BC:0005 DE:cc0d HL:1d71 SP:dfdd
32e1  dec  c AF:cd40 BC:0005 DE:cc0e HL:1d71 SP:dfdd
32e2  jr   nz,$32de AF:cd40 BC:0004 DE:cc0e HL:1d71 SP:dfdd
32de  ldi  a,(hl) AF:cd40 BC:0004 DE:cc0e HL:1d71 SP:dfdd
32df  ld   (de),a AF:4c40 BC:0004 DE:cc0e HL:1d72 SP:dfdd
32e0  inc  de AF:4c40 BC:0004 DE:cc0e HL:1d72 SP:dfdd
32e1  dec  c AF:4c40 BC:0004 DE:cc0f HL:1d72 SP:dfdd
32e2  jr   nz,$32de AF:4c40 BC:0003 DE:cc0f HL:1d72 SP:dfdd
32de  ldi  a,(hl) AF:4c40 BC:0003 DE:cc0f HL:1d72 SP:dfdd
32df  ld   (de),a AF:1c40 BC:0003 DE:cc0f HL:1d73 SP:dfdd
32e0  inc  de AF:1c40 BC:0003 DE:cc0f HL:1d73 SP:dfdd
32e1  dec  c AF:1c40 BC:0003 DE:cc10 HL:1d73 SP:dfdd
32e2  jr   nz,$32de AF:1c40 BC:0002 DE:cc10 HL:1d73 SP:dfdd
32de  ldi  a,(hl) AF:1c40 BC:0002 DE:cc10 HL:1d73 SP:dfdd
32df  ld   (de),a AF:c940 BC:0002 DE:cc10 HL:1d74 SP:dfdd
32e0  inc  de AF:c940 BC:0002 DE:cc10 HL:1d74 SP:dfdd
32e1  dec  c AF:c940 BC:0002 DE:cc11 HL:1d74 SP:dfdd
32e2  jr   nz,$32de AF:c940 BC:0001 DE:cc11 HL:1d74 SP:dfdd
32de  ldi  a,(hl) AF:c940 BC:0001 DE:cc11 HL:1d74 SP:dfdd
32df  ld   (de),a AF:2140 BC:0001 DE:cc11 HL:1d75 SP:dfdd
32e0  inc  de AF:2140 BC:0001 DE:cc11 HL:1d75 SP:dfdd
32e1  dec  c AF:2140 BC:0001 DE:cc12 HL:1d75 SP:dfdd
32e2  jr   nz,$32de AF:21c0 BC:0000 DE:cc12 HL:1d75 SP:dfdd
32e4  ret AF:21c0 BC:0000 DE:cc12 HL:1d75 SP:dfdd
1d4c  call $1bf4 AF:21c0 BC:0000 DE:cc12 HL:1d75 SP:dfdf
1bf4  ld   hl,$4000 AF:21c0 BC:0000 DE:cc12 HL:1d75 SP:dfdd
03ae  push af AF:21c0 BC:0000 DE:cc12 HL:1d75 SP:dfdb
03af  ld   a,($ffd0) AF:21c0 BC:0000 DE:cc12 HL:1d75 SP:dfd9
03b1  and  a,a AF:00c0 BC:0000 DE:cc12 HL:1d75 SP:dfd9
03b2  jr   z,$03df AF:00a0 BC:0000 DE:cc12 HL:1d75 SP:dfd9
03df  pop  af AF:00a0 BC:0000 DE:cc12 HL:1d75 SP:dfd9
03e0  reti AF:21c0 BC:0000 DE:cc12 HL:1d75 SP:dfdb
1bf4  ld   hl,$4000 AF:21c0 BC:0000 DE:cc12 HL:1d75 SP:dfdd
1bf7  ld   a,$09 AF:21c0 BC:0000 DE:cc12 HL:4000 SP:dfdd
1bf9  jp   $2f6c AF:09c0 BC:0000 DE:cc12 HL:4000 SP:dfdd
2f6c  push af AF:09c0 BC:0000 DE:cc12 HL:4000 SP:dfdd
2f6d  ld   a,b AF:09c0 BC:0000 DE:cc12 HL:4000 SP:dfdb
2f6e  ld   ($cd54),a AF:00c0 BC:0000 DE:cc12 HL:4000 SP:dfdb
2f71  ld   a,c AF:00c0 BC:0000 DE:cc12 HL:4000 SP:dfdb
2f72  ld   ($cd55),a AF:00c0 BC:0000 DE:cc12 HL:4000 SP:dfdb
2f75  pop  af AF:00c0 BC:0000 DE:cc12 HL:4000 SP:dfdb
2f76  ld   b,a AF:09c0 BC:0000 DE:cc12 HL:4000 SP:dfdd
2f77  ld   a,($ff98) AF:09c0 BC:0900 DE:cc12 HL:4000 SP:dfdd
2f79  push af AF:04c0 BC:0900 DE:cc12 HL:4000 SP:dfdd
2f7a  ld   a,b AF:04c0 BC:0900 DE:cc12 HL:4000 SP:dfdb
2f7b  call $3286 AF:09c0 BC:0900 DE:cc12 HL:4000 SP:dfdb
3286  ld   ($ff98),a AF:09c0 BC:0900 DE:cc12 HL:4000 SP:dfd9
3288  ld   ($2000),a AF:09c0 BC:0900 DE:cc12 HL:4000 SP:dfd9
328b  ret AF:09c0 BC:0900 DE:cc12 HL:4000 SP:dfd9
2f7e  ld   bc,$2f8c AF:09c0 BC:0900 DE:cc12 HL:4000 SP:dfdb
2f81  push bc AF:09c0 BC:2f8c DE:cc12 HL:4000 SP:dfdb
2f82  push hl AF:09c0 BC:2f8c DE:cc12 HL:4000 SP:dfd9
2f83  ld   a,($cd54) AF:09c0 BC:2f8c DE:cc12 HL:4000 SP:dfd7
2f86  ld   b,a AF:00c0 BC:2f8c DE:cc12 HL:4000 SP:dfd7
2f87  ld   a,($cd55) AF:00c0 BC:008c DE:cc12 HL:4000 SP:dfd7
2f8a  ld   c,a AF:00c0 BC:008c DE:cc12 HL:4000 SP:dfd7
2f8b  ret AF:00c0 BC:0000 DE:cc12 HL:4000 SP:dfd7
4000  xor  a,a AF:00c0 BC:0000 DE:cc12 HL:4000 SP:dfd9
4001  call $326b AF:0080 BC:0000 DE:cc12 HL:4000 SP:dfd9
326b  push af AF:0080 BC:0000 DE:cc12 HL:4000 SP:dfd7
03ae  push af AF:0080 BC:0000 DE:cc12 HL:4000 SP:dfd5
03af  ld   a,($ffd0) AF:0080 BC:0000 DE:cc12 HL:4000 SP:dfd3
03b1  and  a,a AF:0080 BC:0000 DE:cc12 HL:4000 SP:dfd3
03b2  jr   z,$03df AF:00a0 BC:0000 DE:cc12 HL:4000 SP:dfd3
03df  pop  af AF:00a0 BC:0000 DE:cc12 HL:4000 SP:dfd3
03e0  reti AF:0080 BC:0000 DE:cc12 HL:4000 SP:dfd5
326b  push af AF:0080 BC:0000 DE:cc12 HL:4000 SP:dfd7
326c  ld   a,$01 AF:0080 BC:0000 DE:cc12 HL:4000 SP:dfd5
326e  ld   ($6000),a AF:0180 BC:0000 DE:cc12 HL:4000 SP:dfd5
3271  ld   a,$0a AF:0180 BC:0000 DE:cc12 HL:4000 SP:dfd5
3273  ld   ($0000),a AF:0a80 BC:0000 DE:cc12 HL:4000 SP:dfd5
3276  pop  af AF:0a80 BC:0000 DE:cc12 HL:4000 SP:dfd5
3277  ld   ($4000),a AF:0080 BC:0000 DE:cc12 HL:4000 SP:dfd7
327a  ret AF:0080 BC:0000 DE:cc12 HL:4000 SP:dfd7
4004  ld   hl,$cbf2 AF:0080 BC:0000 DE:cc12 HL:4000 SP:dfd9
4007  ld   e,(hl) AF:0080 BC:0000 DE:cc12 HL:cbf2 SP:dfd9
4008  inc  hl AF:0080 BC:0000 DE:ccad HL:cbf2 SP:dfd9
4009  ld   d,(hl) AF:0080 BC:0000 DE:ccad HL:cbf3 SP:dfd9
400a  push de AF:0080 BC:0000 DE:bdad HL:cbf3 SP:dfd9
400b  ld   b,$10 AF:0080 BC:0000 DE:bdad HL:cbf3 SP:dfd7
400d  ld   hl,$cc02 AF:0080 BC:1000 DE:bdad HL:cbf3 SP:dfd7
4010  ldi  a,(hl) AF:0080 BC:1000 DE:bdad HL:cc02 SP:dfd7
4011  ld   (de),a AF:4080 BC:1000 DE:bdad HL:cc03 SP:dfd7
4012  dec  de AF:4080 BC:1000 DE:bdad HL:cc03 SP:dfd7
4013  dec  b AF:4080 BC:1000 DE:bdac HL:cc03 SP:dfd7
4014  jr   nz,$4010 AF:4060 BC:0f00 DE:bdac HL:cc03 SP:dfd7
4010  ldi  a,(hl) AF:4060 BC:0f00 DE:bdac HL:cc03 SP:dfd7
4011  ld   (de),a AF:0c60 BC:0f00 DE:bdac HL:cc04 SP:dfd7
4012  dec  de AF:0c60 BC:0f00 DE:bdac HL:cc04 SP:dfd7
4013  dec  b AF:0c60 BC:0f00 DE:bdab HL:cc04 SP:dfd7
4014  jr   nz,$4010 AF:0c40 BC:0e00 DE:bdab HL:cc04 SP:dfd7
4010  ldi  a,(hl) AF:0c40 BC:0e00 DE:bdab HL:cc04 SP:dfd7
4011  ld   (de),a AF:0040 BC:0e00 DE:bdab HL:cc05 SP:dfd7
4012  dec  de AF:0040 BC:0e00 DE:bdab HL:cc05 SP:dfd7
4013  dec  b AF:0040 BC:0e00 DE:bdaa HL:cc05 SP:dfd7
4014  jr   nz,$4010 AF:0040 BC:0d00 DE:bdaa HL:cc05 SP:dfd7
4010  ldi  a,(hl) AF:0040 BC:0d00 DE:bdaa HL:cc05 SP:dfd7
4011  ld   (de),a AF:1140 BC:0d00 DE:bdaa HL:cc06 SP:dfd7
4012  dec  de AF:1140 BC:0d00 DE:bdaa HL:cc06 SP:dfd7
4013  dec  b AF:1140 BC:0d00 DE:bda9 HL:cc06 SP:dfd7
4014  jr   nz,$4010 AF:1140 BC:0c00 DE:bda9 HL:cc06 SP:dfd7
4010  ldi  a,(hl) AF:1140 BC:0c00 DE:bda9 HL:cc06 SP:dfd7
4011  ld   (de),a AF:1340 BC:0c00 DE:bda9 HL:cc07 SP:dfd7
03ae  push af AF:1340 BC:0c00 DE:bda9 HL:cc07 SP:dfd5
03af  ld   a,($ffd0) AF:1340 BC:0c00 DE:bda9 HL:cc07 SP:dfd3
03b1  and  a,a AF:0040 BC:0c00 DE:bda9 HL:cc07 SP:dfd3
03b2  jr   z,$03df AF:00a0 BC:0c00 DE:bda9 HL:cc07 SP:dfd3
03df  pop  af AF:00a0 BC:0c00 DE:bda9 HL:cc07 SP:dfd3
03e0  reti AF:1340 BC:0c00 DE:bda9 HL:cc07 SP:dfd5
4011  ld   (de),a AF:1340 BC:0c00 DE:bda9 HL:cc07 SP:dfd7
4012  dec  de AF:1340 BC:0c00 DE:bda9 HL:cc07 SP:dfd7
4013  dec  b AF:1340 BC:0c00 DE:bda8 HL:cc07 SP:dfd7
4014  jr   nz,$4010 AF:1340 BC:0b00 DE:bda8 HL:cc07 SP:dfd7
4010  ldi  a,(hl) AF:1340 BC:0b00 DE:bda8 HL:cc07 SP:dfd7
4011  ld   (de),a AF:0040 BC:0b00 DE:bda8 HL:cc08 SP:dfd7
4012  dec  de AF:0040 BC:0b00 DE:bda8 HL:cc08 SP:dfd7
4013  dec  b AF:0040 BC:0b00 DE:bda7 HL:cc08 SP:dfd7
4014  jr   nz,$4010 AF:0040 BC:0a00 DE:bda7 HL:cc08 SP:dfd7
4010  ldi  a,(hl) AF:0040 BC:0a00 DE:bda7 HL:cc08 SP:dfd7
4011  ld   (de),a AF:8040 BC:0a00 DE:bda7 HL:cc09 SP:dfd7
4012  dec  de AF:8040 BC:0a00 DE:bda7 HL:cc09 SP:dfd7
4013  dec  b AF:8040 BC:0a00 DE:bda6 HL:cc09 SP:dfd7
4014  jr   nz,$4010 AF:8040 BC:0900 DE:bda6 HL:cc09 SP:dfd7
4010  ldi  a,(hl) AF:8040 BC:0900 DE:bda6 HL:cc09 SP:dfd7
4011  ld   (de),a AF:0040 BC:0900 DE:bda6 HL:cc0a SP:dfd7
4012  dec  de AF:0040 BC:0900 DE:bda6 HL:cc0a SP:dfd7
4013  dec  b AF:0040 BC:0900 DE:bda5 HL:cc0a SP:dfd7
4014  jr   nz,$4010 AF:0040 BC:0800 DE:bda5 HL:cc0a SP:dfd7
4010  ldi  a,(hl) AF:0040 BC:0800 DE:bda5 HL:cc0a SP:dfd7
4011  ld   (de),a AF:cd40 BC:0800 DE:bda5 HL:cc0b SP:dfd7
4012  dec  de AF:cd40 BC:0800 DE:bda5 HL:cc0b SP:dfd7
4013  dec  b AF:cd40 BC:0800 DE:bda4 HL:cc0b SP:dfd7
4014  jr   nz,$4010 AF:cd40 BC:0700 DE:bda4 HL:cc0b SP:dfd7
4010  ldi  a,(hl) AF:cd40 BC:0700 DE:bda4 HL:cc0b SP:dfd7
4011  ld   (de),a AF:5940 BC:0700 DE:bda4 HL:cc0c SP:dfd7
4012  dec  de AF:5940 BC:0700 DE:bda4 HL:cc0c SP:dfd7
4013  dec  b AF:5940 BC:0700 DE:bda3 HL:cc0c SP:dfd7
4014  jr   nz,$4010 AF:5940 BC:0600 DE:bda3 HL:cc0c SP:dfd7
4010  ldi  a,(hl) AF:5940 BC:0600 DE:bda3 HL:cc0c SP:dfd7
4011  ld   (de),a AF:1d40 BC:0600 DE:bda3 HL:cc0d SP:dfd7
4012  dec  de AF:1d40 BC:0600 DE:bda3 HL:cc0d SP:dfd7
4013  dec  b AF:1d40 BC:0600 DE:bda2 HL:cc0d SP:dfd7
4014  jr   nz,$4010 AF:1d40 BC:0500 DE:bda2 HL:cc0d SP:dfd7
4010  ldi  a,(hl) AF:1d40 BC:0500 DE:bda2 HL:cc0d SP:dfd7
4011  ld   (de),a AF:cd40 BC:0500 DE:bda2 HL:cc0e SP:dfd7
4012  dec  de AF:cd40 BC:0500 DE:bda2 HL:cc0e SP:dfd7
4013  dec  b AF:cd40 BC:0500 DE:bda1 HL:cc0e SP:dfd7
4014  jr   nz,$4010 AF:cd40 BC:0400 DE:bda1 HL:cc0e SP:dfd7
4010  ldi  a,(hl) AF:cd40 BC:0400 DE:bda1 HL:cc0e SP:dfd7
4011  ld   (de),a AF:4c40 BC:0400 DE:bda1 HL:cc0f SP:dfd7
4012  dec  de AF:4c40 BC:0400 DE:bda1 HL:cc0f SP:dfd7
4013  dec  b AF:4c40 BC:0400 DE:bda0 HL:cc0f SP:dfd7
4014  jr   nz,$4010 AF:4c40 BC:0300 DE:bda0 HL:cc0f SP:dfd7
4010  ldi  a,(hl) AF:4c40 BC:0300 DE:bda0 HL:cc0f SP:dfd7
03ae  push af AF:4c40 BC:0300 DE:bda0 HL:cc0f SP:dfd5
03af  ld   a,($ffd0) AF:4c40 BC:0300 DE:bda0 HL:cc0f SP:dfd3
03b1  and  a,a AF:0040 BC:0300 DE:bda0 HL:cc0f SP:dfd3
03b2  jr   z,$03df AF:00a0 BC:0300 DE:bda0 HL:cc0f SP:dfd3
03df  pop  af AF:00a0 BC:0300 DE:bda0 HL:cc0f SP:dfd3
03e0  reti AF:4c40 BC:0300 DE:bda0 HL:cc0f SP:dfd5
4010  ldi  a,(hl) AF:4c40 BC:0300 DE:bda0 HL:cc0f SP:dfd7
4011  ld   (de),a AF:1c40 BC:0300 DE:bda0 HL:cc10 SP:dfd7
4012  dec  de AF:1c40 BC:0300 DE:bda0 HL:cc10 SP:dfd7
4013  dec  b AF:1c40 BC:0300 DE:bd9f HL:cc10 SP:dfd7
4014  jr   nz,$4010 AF:1c40 BC:0200 DE:bd9f HL:cc10 SP:dfd7
4010  ldi  a,(hl) AF:1c40 BC:0200 DE:bd9f HL:cc10 SP:dfd7
4011  ld   (de),a AF:c940 BC:0200 DE:bd9f HL:cc11 SP:dfd7
4012  dec  de AF:c940 BC:0200 DE:bd9f HL:cc11 SP:dfd7
4013  dec  b AF:c940 BC:0200 DE:bd9e HL:cc11 SP:dfd7
4014  jr   nz,$4010 AF:c940 BC:0100 DE:bd9e HL:cc11 SP:dfd7
4010  ldi  a,(hl) AF:c940 BC:0100 DE:bd9e HL:cc11 SP:dfd7
4011  ld   (de),a AF:2140 BC:0100 DE:bd9e HL:cc12 SP:dfd7
4012  dec  de AF:2140 BC:0100 DE:bd9e HL:cc12 SP:dfd7
4013  dec  b AF:2140 BC:0100 DE:bd9d HL:cc12 SP:dfd7
4014  jr   nz,$4010 AF:21c0 BC:0000 DE:bd9d HL:cc12 SP:dfd7
4016  ld   a,($cc02) AF:21c0 BC:0000 DE:bd9d HL:cc12 SP:dfd7
4019  bit  6,a AF:40c0 BC:0000 DE:bd9d HL:cc12 SP:dfd7
401b  jr   nz,$4028 AF:4020 BC:0000 DE:bd9d HL:cc12 SP:dfd7
4028  ld   hl,$cbf2 AF:4020 BC:0000 DE:bd9d HL:cc12 SP:dfd7
402b  ldi  a,(hl) AF:4020 BC:0000 DE:bd9d HL:cbf2 SP:dfd7
402c  ld   h,(hl) AF:ad20 BC:0000 DE:bd9d HL:cbf3 SP:dfd7
402d  ld   l,a AF:ad20 BC:0000 DE:bd9d HL:bdf3 SP:dfd7
402e  set  0,(hl) AF:ad20 BC:0000 DE:bd9d HL:bdad SP:dfd7
4030  call $1d2d AF:ad20 BC:0000 DE:bd9d HL:bdad SP:dfd7
1d2d  ld   a,($cc04) AF:ad20 BC:0000 DE:bd9d HL:bdad SP:dfd5
1d30  ld   c,a AF:0020 BC:0000 DE:bd9d HL:bdad SP:dfd5
1d31  ld   a,($cc03) AF:0020 BC:0000 DE:bd9d HL:bdad SP:dfd5
1d34  ld   b,a AF:0c20 BC:0000 DE:bd9d HL:bdad SP:dfd5
1d35  xor  a,a AF:0c20 BC:0c00 DE:bd9d HL:bdad SP:dfd5
1d36  ld   h,a AF:0080 BC:0c00 DE:bd9d HL:bdad SP:dfd5
1d37  ld   l,b AF:0080 BC:0c00 DE:bd9d HL:00ad SP:dfd5
1d38  ld   a,c AF:0080 BC:0c00 DE:bd9d HL:000c SP:dfd5
1d39  ld   b,h AF:0080 BC:0c00 DE:bd9d HL:000c SP:dfd5
1d3a  ld   c,l AF:0080 BC:0000 DE:bd9d HL:000c SP:dfd5
1d3b  add  hl,hl AF:0080 BC:000c DE:bd9d HL:000c SP:dfd5
1d3c  add  hl,hl AF:0080 BC:000c DE:bd9d HL:0018 SP:dfd5
1d3d  add  hl,bc AF:0080 BC:000c DE:bd9d HL:0030 SP:dfd5
1d3e  add  hl,hl AF:0080 BC:000c DE:bd9d HL:003c SP:dfd5
1d3f  add  hl,hl AF:0080 BC:000c DE:bd9d HL:0078 SP:dfd5
1d40  ld   c,a AF:0080 BC:000c DE:bd9d HL:00f0 SP:dfd5
1d41  xor  a,a AF:0080 BC:0000 DE:bd9d HL:00f0 SP:dfd5
1d42  ld   b,a AF:0080 BC:0000 DE:bd9d HL:00f0 SP:dfd5
1d43  add  hl,bc AF:0080 BC:0000 DE:bd9d HL:00f0 SP:dfd5
1d44  ld   bc,$c2a0 AF:0080 BC:0000 DE:bd9d HL:00f0 SP:dfd5
03ae  push af AF:0080 BC:0000 DE:bd9d HL:00f0 SP:dfd3
03af  ld   a,($ffd0) AF:0080 BC:0000 DE:bd9d HL:00f0 SP:dfd1
03b1  and  a,a AF:0080 BC:0000 DE:bd9d HL:00f0 SP:dfd1
03b2  jr   z,$03df AF:00a0 BC:0000 DE:bd9d HL:00f0 SP:dfd1
03df  pop  af AF:00a0 BC:0000 DE:bd9d HL:00f0 SP:dfd1
03e0  reti AF:0080 BC:0000 DE:bd9d HL:00f0 SP:dfd3
1d44  ld   bc,$c2a0 AF:0080 BC:0000 DE:bd9d HL:00f0 SP:dfd5
1d47  add  hl,bc AF:0080 BC:c2a0 DE:bd9d HL:00f0 SP:dfd5
1d48  ret AF:0080 BC:c2a0 DE:bd9d HL:c390 SP:dfd5
4033  call $1c86 AF:0080 BC:c2a0 DE:bd9d HL:c390 SP:dfd7
1c86  push hl AF:0080 BC:c2a0 DE:bd9d HL:c390 SP:dfd5
1c87  ld   hl,$cc03 AF:0080 BC:c2a0 DE:bd9d HL:c390 SP:dfd3
1c8a  ldi  a,(hl) AF:0080 BC:c2a0 DE:bd9d HL:cc03 SP:dfd3
1c8b  ld   b,a AF:0c80 BC:c2a0 DE:bd9d HL:cc04 SP:dfd3
1c8c  ldi  a,(hl) AF:0c80 BC:0ca0 DE:bd9d HL:cc04 SP:dfd3
1c8d  ld   c,a AF:0080 BC:0ca0 DE:bd9d HL:cc05 SP:dfd3
1c8e  ldi  a,(hl) AF:0080 BC:0c00 DE:bd9d HL:cc05 SP:dfd3
1c8f  sub  a,b AF:1180 BC:0c00 DE:bd9d HL:cc06 SP:dfd3
1c90  ld   b,a AF:0560 BC:0c00 DE:bd9d HL:cc06 SP:dfd3
1c91  ldi  a,(hl) AF:0560 BC:0500 DE:bd9d HL:cc06 SP:dfd3
1c92  sub  a,c AF:1360 BC:0500 DE:bd9d HL:cc07 SP:dfd3
1c93  ld   c,a AF:1340 BC:0500 DE:bd9d HL:cc07 SP:dfd3
1c94  pop  hl AF:1340 BC:0513 DE:bd9d HL:cc07 SP:dfd3
1c95  ret AF:1340 BC:0513 DE:bd9d HL:c390 SP:dfd5
4036  inc  b AF:1340 BC:0513 DE:bd9d HL:c390 SP:dfd7
4037  inc  c AF:1300 BC:0613 DE:bd9d HL:c390 SP:dfd7
4038  call $406d AF:1300 BC:0614 DE:bd9d HL:c390 SP:dfd7
406d  push bc AF:1300 BC:0614 DE:bd9d HL:c390 SP:dfd5
406e  push de AF:1300 BC:0614 DE:bd9d HL:c390 SP:dfd3
406f  push hl AF:1300 BC:0614 DE:bd9d HL:c390 SP:dfd1
4070  xor  a,a AF:1300 BC:0614 DE:bd9d HL:c390 SP:dfcf
4071  ld   l,c AF:0080 BC:0614 DE:bd9d HL:c390 SP:dfcf
4072  ld   h,$00 AF:0080 BC:0614 DE:bd9d HL:c314 SP:dfcf
4074  ld   c,b AF:0080 BC:0614 DE:bd9d HL:0014 SP:dfcf
4075  ld   b,$00 AF:0080 BC:0606 DE:bd9d HL:0014 SP:dfcf
4077  ld   a,$14 AF:0080 BC:0006 DE:bd9d HL:0014 SP:dfcf
4079  call $33ed AF:1480 BC:0006 DE:bd9d HL:0014 SP:dfcf
33ed  and  a,a AF:1480 BC:0006 DE:bd9d HL:0014 SP:dfcd
33ee  ret  z AF:1420 BC:0006 DE:bd9d HL:0014 SP:dfcd
33ef  add  hl,bc AF:1420 BC:0006 DE:bd9d HL:0014 SP:dfcd
33f0  dec  a AF:1400 BC:0006 DE:bd9d HL:001a SP:dfcd
33f1  jr   nz,$33ef AF:1340 BC:0006 DE:bd9d HL:001a SP:dfcd
33ef  add  hl,bc AF:1340 BC:0006 DE:bd9d HL:001a SP:dfcd
03ae  push af AF:1340 BC:0006 DE:bd9d HL:001a SP:dfcb
03af  ld   a,($ffd0) AF:1340 BC:0006 DE:bd9d HL:001a SP:dfc9
03b1  and  a,a AF:0040 BC:0006 DE:bd9d HL:001a SP:dfc9
03b2  jr   z,$03df AF:00a0 BC:0006 DE:bd9d HL:001a SP:dfc9
03df  pop  af AF:00a0 BC:0006 DE:bd9d HL:001a SP:dfc9
03e0  reti AF:1340 BC:0006 DE:bd9d HL:001a SP:dfcb
33ef  add  hl,bc AF:1340 BC:0006 DE:bd9d HL:001a SP:dfcd
33f0  dec  a AF:1300 BC:0006 DE:bd9d HL:0020 SP:dfcd
33f1  jr   nz,$33ef AF:1240 BC:0006 DE:bd9d HL:0020 SP:dfcd
33ef  add  hl,bc AF:1240 BC:0006 DE:bd9d HL:0020 SP:dfcd
33f0  dec  a AF:1200 BC:0006 DE:bd9d HL:0026 SP:dfcd
33f1  jr   nz,$33ef AF:1140 BC:0006 DE:bd9d HL:0026 SP:dfcd
33ef  add  hl,bc AF:1140 BC:0006 DE:bd9d HL:0026 SP:dfcd
33f0  dec  a AF:1100 BC:0006 DE:bd9d HL:002c SP:dfcd
33f1  jr   nz,$33ef AF:1040 BC:0006 DE:bd9d HL:002c SP:dfcd
33ef  add  hl,bc AF:1040 BC:0006 DE:bd9d HL:002c SP:dfcd
33f0  dec  a AF:1000 BC:0006 DE:bd9d HL:0032 SP:dfcd
33f1  jr   nz,$33ef AF:0f60 BC:0006 DE:bd9d HL:0032 SP:dfcd
33ef  add  hl,bc AF:0f60 BC:0006 DE:bd9d HL:0032 SP:dfcd
33f0  dec  a AF:0f00 BC:0006 DE:bd9d HL:0038 SP:dfcd
33f1  jr   nz,$33ef AF:0e40 BC:0006 DE:bd9d HL:0038 SP:dfcd
33ef  add  hl,bc AF:0e40 BC:0006 DE:bd9d HL:0038 SP:dfcd
33f0  dec  a AF:0e00 BC:0006 DE:bd9d HL:003e SP:dfcd
33f1  jr   nz,$33ef AF:0d40 BC:0006 DE:bd9d HL:003e SP:dfcd
33ef  add  hl,bc AF:0d40 BC:0006 DE:bd9d HL:003e SP:dfcd
33f0  dec  a AF:0d00 BC:0006 DE:bd9d HL:0044 SP:dfcd
33f1  jr   nz,$33ef AF:0c40 BC:0006 DE:bd9d HL:0044 SP:dfcd
33ef  add  hl,bc AF:0c40 BC:0006 DE:bd9d HL:0044 SP:dfcd
33f0  dec  a AF:0c00 BC:0006 DE:bd9d HL:004a SP:dfcd
33f1  jr   nz,$33ef AF:0b40 BC:0006 DE:bd9d HL:004a SP:dfcd
33ef  add  hl,bc AF:0b40 BC:0006 DE:bd9d HL:004a SP:dfcd
33f0  dec  a AF:0b00 BC:0006 DE:bd9d HL:0050 SP:dfcd
33f1  jr   nz,$33ef AF:0a40 BC:0006 DE:bd9d HL:0050 SP:dfcd
33ef  add  hl,bc AF:0a40 BC:0006 DE:bd9d HL:0050 SP:dfcd
33f0  dec  a AF:0a00 BC:0006 DE:bd9d HL:0056 SP:dfcd
33f1  jr   nz,$33ef AF:0940 BC:0006 DE:bd9d HL:0056 SP:dfcd
33ef  add  hl,bc AF:0940 BC:0006 DE:bd9d HL:0056 SP:dfcd
33f0  dec  a AF:0900 BC:0006 DE:bd9d HL:005c SP:dfcd
33f1  jr   nz,$33ef AF:0840 BC:0006 DE:bd9d HL:005c SP:dfcd
33ef  add  hl,bc AF:0840 BC:0006 DE:bd9d HL:005c SP:dfcd
33f0  dec  a AF:0800 BC:0006 DE:bd9d HL:0062 SP:dfcd
33f1  jr   nz,$33ef AF:0740 BC:0006 DE:bd9d HL:0062 SP:dfcd
33ef  add  hl,bc AF:0740 BC:0006 DE:bd9d HL:0062 SP:dfcd
33f0  dec  a AF:0700 BC:0006 DE:bd9d HL:0068 SP:dfcd
33f1  jr   nz,$33ef AF:0640 BC:0006 DE:bd9d HL:0068 SP:dfcd
33ef  add  hl,bc AF:0640 BC:0006 DE:bd9d HL:0068 SP:dfcd
33f0  dec  a AF:0600 BC:0006 DE:bd9d HL:006e SP:dfcd
33f1  jr   nz,$33ef AF:0540 BC:0006 DE:bd9d HL:006e SP:dfcd
33ef  add  hl,bc AF:0540 BC:0006 DE:bd9d HL:006e SP:dfcd
33f0  dec  a AF:0500 BC:0006 DE:bd9d HL:0074 SP:dfcd
03ae  push af AF:0500 BC:0006 DE:bd9d HL:0074 SP:dfcb
03af  ld   a,($ffd0) AF:0500 BC:0006 DE:bd9d HL:0074 SP:dfc9
03b1  and  a,a AF:0000 BC:0006 DE:bd9d HL:0074 SP:dfc9
03b2  jr   z,$03df AF:00a0 BC:0006 DE:bd9d HL:0074 SP:dfc9
03df  pop  af AF:00a0 BC:0006 DE:bd9d HL:0074 SP:dfc9
03e0  reti AF:0500 BC:0006 DE:bd9d HL:0074 SP:dfcb
33f0  dec  a AF:0500 BC:0006 DE:bd9d HL:0074 SP:dfcd
33f1  jr   nz,$33ef AF:0440 BC:0006 DE:bd9d HL:0074 SP:dfcd
33ef  add  hl,bc AF:0440 BC:0006 DE:bd9d HL:0074 SP:dfcd
33f0  dec  a AF:0400 BC:0006 DE:bd9d HL:007a SP:dfcd
33f1  jr   nz,$33ef AF:0340 BC:0006 DE:bd9d HL:007a SP:dfcd
33ef  add  hl,bc AF:0340 BC:0006 DE:bd9d HL:007a SP:dfcd
33f0  dec  a AF:0300 BC:0006 DE:bd9d HL:0080 SP:dfcd
33f1  jr   nz,$33ef AF:0240 BC:0006 DE:bd9d HL:0080 SP:dfcd
33ef  add  hl,bc AF:0240 BC:0006 DE:bd9d HL:0080 SP:dfcd
33f0  dec  a AF:0200 BC:0006 DE:bd9d HL:0086 SP:dfcd
33f1  jr   nz,$33ef AF:0140 BC:0006 DE:bd9d HL:0086 SP:dfcd
33ef  add  hl,bc AF:0140 BC:0006 DE:bd9d HL:0086 SP:dfcd
33f0  dec  a AF:0100 BC:0006 DE:bd9d HL:008c SP:dfcd
33f1  jr   nz,$33ef AF:00c0 BC:0006 DE:bd9d HL:008c SP:dfcd
33f3  ret AF:00c0 BC:0006 DE:bd9d HL:008c SP:dfcd
407c  ld   a,h AF:00c0 BC:0006 DE:bd9d HL:008c SP:dfcf
407d  cpl AF:00c0 BC:0006 DE:bd9d HL:008c SP:dfcf
407e  ld   h,a AF:ffe0 BC:0006 DE:bd9d HL:008c SP:dfcf
407f  ld   a,l AF:ffe0 BC:0006 DE:bd9d HL:ff8c SP:dfcf
4080  cpl AF:8ce0 BC:0006 DE:bd9d HL:ff8c SP:dfcf
4081  ld   l,a AF:73e0 BC:0006 DE:bd9d HL:ff8c SP:dfcf
4082  inc  hl AF:73e0 BC:0006 DE:bd9d HL:ff73 SP:dfcf
4083  add  hl,de AF:73e0 BC:0006 DE:bd9d HL:ff74 SP:dfcf
4084  ld   a,e AF:73b0 BC:0006 DE:bd9d HL:bd11 SP:dfcf
4085  sub  a,$00 AF:9db0 BC:0006 DE:bd9d HL:bd11 SP:dfcf
4087  ld   a,d AF:9d40 BC:0006 DE:bd9d HL:bd11 SP:dfcf
4088  sbc  a,$b8 AF:bd40 BC:0006 DE:bd9d HL:bd11 SP:dfcf
408a  jr   c,$4090 AF:0540 BC:0006 DE:bd9d HL:bd11 SP:dfcf
408c  pop  hl AF:0540 BC:0006 DE:bd9d HL:bd11 SP:dfcf
408d  pop  de AF:0540 BC:0006 DE:bd9d HL:c390 SP:dfd1
408e  pop  bc AF:0540 BC:0006 DE:bd9d HL:c390 SP:dfd3
408f  ret AF:0540 BC:0614 DE:bd9d HL:c390 SP:dfd5
403b  push bc AF:0540 BC:0614 DE:bd9d HL:c390 SP:dfd7
403c  push hl AF:0540 BC:0614 DE:bd9d HL:c390 SP:dfd5
403d  ldi  a,(hl) AF:0540 BC:0614 DE:bd9d HL:c390 SP:dfd3
403e  ld   (de),a AF:7940 BC:0614 DE:bd9d HL:c391 SP:dfd3
403f  dec  de AF:7940 BC:0614 DE:bd9d HL:c391 SP:dfd3
4040  dec  c AF:7940 BC:0614 DE:bd9c HL:c391 SP:dfd3
4041  jr   nz,$403d AF:7940 BC:0613 DE:bd9c HL:c391 SP:dfd3
403d  ldi  a,(hl) AF:7940 BC:0613 DE:bd9c HL:c391 SP:dfd3
403e  ld   (de),a AF:7a40 BC:0613 DE:bd9c HL:c392 SP:dfd3
403f  dec  de AF:7a40 BC:0613 DE:bd9c HL:c392 SP:dfd3
4040  dec  c AF:7a40 BC:0613 DE:bd9b HL:c392 SP:dfd3
4041  jr   nz,$403d AF:7a40 BC:0612 DE:bd9b HL:c392 SP:dfd3
03ae  push af AF:7a40 BC:0612 DE:bd9b HL:c392 SP:dfd1
03af  ld   a,($ffd0) AF:7a40 BC:0612 DE:bd9b HL:c392 SP:dfcf
03b1  and  a,a AF:0040 BC:0612 DE:bd9b HL:c392 SP:dfcf
03b2  jr   z,$03df AF:00a0 BC:0612 DE:bd9b HL:c392 SP:dfcf
03df  pop  af AF:00a0 BC:0612 DE:bd9b HL:c392 SP:dfcf
03e0  reti AF:7a40 BC:0612 DE:bd9b HL:c392 SP:dfd1
4041  jr   nz,$403d AF:7a40 BC:0612 DE:bd9b HL:c392 SP:dfd3
403d  ldi  a,(hl) AF:7a40 BC:0612 DE:bd9b HL:c392 SP:dfd3
403e  ld   (de),a AF:7a40 BC:0612 DE:bd9b HL:c393 SP:dfd3
403f  dec  de AF:7a40 BC:0612 DE:bd9b HL:c393 SP:dfd3
4040  dec  c AF:7a40 BC:0612 DE:bd9a HL:c393 SP:dfd3
4041  jr   nz,$403d AF:7a40 BC:0611 DE:bd9a HL:c393 SP:dfd3
403d  ldi  a,(hl) AF:7a40 BC:0611 DE:bd9a HL:c393 SP:dfd3
403e  ld   (de),a AF:7a40 BC:0611 DE:bd9a HL:c394 SP:dfd3
403f  dec  de AF:7a40 BC:0611 DE:bd9a HL:c394 SP:dfd3
4040  dec  c AF:7a40 BC:0611 DE:bd99 HL:c394 SP:dfd3
4041  jr   nz,$403d AF:7a40 BC:0610 DE:bd99 HL:c394 SP:dfd3
403d  ldi  a,(hl) AF:7a40 BC:0610 DE:bd99 HL:c394 SP:dfd3
403e  ld   (de),a AF:7a40 BC:0610 DE:bd99 HL:c395 SP:dfd3
403f  dec  de AF:7a40 BC:0610 DE:bd99 HL:c395 SP:dfd3
4040  dec  c AF:7a40 BC:0610 DE:bd98 HL:c395 SP:dfd3
4041  jr   nz,$403d AF:7a60 BC:060f DE:bd98 HL:c395 SP:dfd3
403d  ldi  a,(hl) AF:7a60 BC:060f DE:bd98 HL:c395 SP:dfd3
403e  ld   (de),a AF:7a60 BC:060f DE:bd98 HL:c396 SP:dfd3
403f  dec  de AF:7a60 BC:060f DE:bd98 HL:c396 SP:dfd3
4040  dec  c AF:7a60 BC:060f DE:bd97 HL:c396 SP:dfd3
4041  jr   nz,$403d AF:7a40 BC:060e DE:bd97 HL:c396 SP:dfd3
403d  ldi  a,(hl) AF:7a40 BC:060e DE:bd97 HL:c396 SP:dfd3
403e  ld   (de),a AF:7a40 BC:060e DE:bd97 HL:c397 SP:dfd3
403f  dec  de AF:7a40 BC:060e DE:bd97 HL:c397 SP:dfd3
4040  dec  c AF:7a40 BC:060e DE:bd96 HL:c397 SP:dfd3
4041  jr   nz,$403d AF:7a40 BC:060d DE:bd96 HL:c397 SP:dfd3
403d  ldi  a,(hl) AF:7a40 BC:060d DE:bd96 HL:c397 SP:dfd3
403e  ld   (de),a AF:7a40 BC:060d DE:bd96 HL:c398 SP:dfd3
403f  dec  de AF:7a40 BC:060d DE:bd96 HL:c398 SP:dfd3
4040  dec  c AF:7a40 BC:060d DE:bd95 HL:c398 SP:dfd3
4041  jr   nz,$403d AF:7a40 BC:060c DE:bd95 HL:c398 SP:dfd3
403d  ldi  a,(hl) AF:7a40 BC:060c DE:bd95 HL:c398 SP:dfd3
403e  ld   (de),a AF:7a40 BC:060c DE:bd95 HL:c399 SP:dfd3
403f  dec  de AF:7a40 BC:060c DE:bd95 HL:c399 SP:dfd3
4040  dec  c AF:7a40 BC:060c DE:bd94 HL:c399 SP:dfd3
4041  jr   nz,$403d AF:7a40 BC:060b DE:bd94 HL:c399 SP:dfd3
403d  ldi  a,(hl) AF:7a40 BC:060b DE:bd94 HL:c399 SP:dfd3
403e  ld   (de),a AF:7a40 BC:060b DE:bd94 HL:c39a SP:dfd3
403f  dec  de AF:7a40 BC:060b DE:bd94 HL:c39a SP:dfd3
4040  dec  c AF:7a40 BC:060b DE:bd93 HL:c39a SP:dfd3
4041  jr   nz,$403d AF:7a40 BC:060a DE:bd93 HL:c39a SP:dfd3
403d  ldi  a,(hl) AF:7a40 BC:060a DE:bd93 HL:c39a SP:dfd3
403e  ld   (de),a AF:7a40 BC:060a DE:bd93 HL:c39b SP:dfd3
403f  dec  de AF:7a40 BC:060a DE:bd93 HL:c39b SP:dfd3
03ae  push af AF:7a40 BC:060a DE:bd93 HL:c39b SP:dfd1
03af  ld   a,($ffd0) AF:7a40 BC:060a DE:bd93 HL:c39b SP:dfcf
03b1  and  a,a AF:0040 BC:060a DE:bd93 HL:c39b SP:dfcf
03b2  jr   z,$03df AF:00a0 BC:060a DE:bd93 HL:c39b SP:dfcf
03df  pop  af AF:00a0 BC:060a DE:bd93 HL:c39b SP:dfcf
03e0  reti AF:7a40 BC:060a DE:bd93 HL:c39b SP:dfd1
403f  dec  de AF:7a40 BC:060a DE:bd93 HL:c39b SP:dfd3
4040  dec  c AF:7a40 BC:060a DE:bd92 HL:c39b SP:dfd3
4041  jr   nz,$403d AF:7a40 BC:0609 DE:bd92 HL:c39b SP:dfd3
403d  ldi  a,(hl) AF:7a40 BC:0609 DE:bd92 HL:c39b SP:dfd3
403e  ld   (de),a AF:7a40 BC:0609 DE:bd92 HL:c39c SP:dfd3
403f  dec  de AF:7a40 BC:0609 DE:bd92 HL:c39c SP:dfd3
4040  dec  c AF:7a40 BC:0609 DE:bd91 HL:c39c SP:dfd3
4041  jr   nz,$403d AF:7a40 BC:0608 DE:bd91 HL:c39c SP:dfd3
403d  ldi  a,(hl) AF:7a40 BC:0608 DE:bd91 HL:c39c SP:dfd3
403e  ld   (de),a AF:7a40 BC:0608 DE:bd91 HL:c39d SP:dfd3
403f  dec  de AF:7a40 BC:0608 DE:bd91 HL:c39d SP:dfd3
4040  dec  c AF:7a40 BC:0608 DE:bd90 HL:c39d SP:dfd3
4041  jr   nz,$403d AF:7a40 BC:0607 DE:bd90 HL:c39d SP:dfd3
403d  ldi  a,(hl) AF:7a40 BC:0607 DE:bd90 HL:c39d SP:dfd3
403e  ld   (de),a AF:7a40 BC:0607 DE:bd90 HL:c39e SP:dfd3
403f  dec  de AF:7a40 BC:0607 DE:bd90 HL:c39e SP:dfd3
4040  dec  c AF:7a40 BC:0607 DE:bd8f HL:c39e SP:dfd3
4041  jr   nz,$403d AF:7a40 BC:0606 DE:bd8f HL:c39e SP:dfd3
403d  ldi  a,(hl) AF:7a40 BC:0606 DE:bd8f HL:c39e SP:dfd3
403e  ld   (de),a AF:7a40 BC:0606 DE:bd8f HL:c39f SP:dfd3
403f  dec  de AF:7a40 BC:0606 DE:bd8f HL:c39f SP:dfd3
4040  dec  c AF:7a40 BC:0606 DE:bd8e HL:c39f SP:dfd3
4041  jr   nz,$403d AF:7a40 BC:0605 DE:bd8e HL:c39f SP:dfd3
403d  ldi  a,(hl) AF:7a40 BC:0605 DE:bd8e HL:c39f SP:dfd3
403e  ld   (de),a AF:7a40 BC:0605 DE:bd8e HL:c3a0 SP:dfd3
403f  dec  de AF:7a40 BC:0605 DE:bd8e HL:c3a0 SP:dfd3
4040  dec  c AF:7a40 BC:0605 DE:bd8d HL:c3a0 SP:dfd3
4041  jr   nz,$403d AF:7a40 BC:0604 DE:bd8d HL:c3a0 SP:dfd3
403d  ldi  a,(hl) AF:7a40 BC:0604 DE:bd8d HL:c3a0 SP:dfd3
403e  ld   (de),a AF:7a40 BC:0604 DE:bd8d HL:c3a1 SP:dfd3
403f  dec  de AF:7a40 BC:0604 DE:bd8d HL:c3a1 SP:dfd3
4040  dec  c AF:7a40 BC:0604 DE:bd8c HL:c3a1 SP:dfd3
4041  jr   nz,$403d AF:7a40 BC:0603 DE:bd8c HL:c3a1 SP:dfd3
403d  ldi  a,(hl) AF:7a40 BC:0603 DE:bd8c HL:c3a1 SP:dfd3
403e  ld   (de),a AF:7a40 BC:0603 DE:bd8c HL:c3a2 SP:dfd3
403f  dec  de AF:7a40 BC:0603 DE:bd8c HL:c3a2 SP:dfd3
4040  dec  c AF:7a40 BC:0603 DE:bd8b HL:c3a2 SP:dfd3
4041  jr   nz,$403d AF:7a40 BC:0602 DE:bd8b HL:c3a2 SP:dfd3
403d  ldi  a,(hl) AF:7a40 BC:0602 DE:bd8b HL:c3a2 SP:dfd3
403e  ld   (de),a AF:7a40 BC:0602 DE:bd8b HL:c3a3 SP:dfd3
403f  dec  de AF:7a40 BC:0602 DE:bd8b HL:c3a3 SP:dfd3
4040  dec  c AF:7a40 BC:0602 DE:bd8a HL:c3a3 SP:dfd3
4041  jr   nz,$403d AF:7a40 BC:0601 DE:bd8a HL:c3a3 SP:dfd3
403d  ldi  a,(hl) AF:7a40 BC:0601 DE:bd8a HL:c3a3 SP:dfd3
403e  ld   (de),a AF:7b40 BC:0601 DE:bd8a HL:c3a4 SP:dfd3
03ae  push af AF:7b40 BC:0601 DE:bd8a HL:c3a4 SP:dfd1
03af  ld   a,($ffd0) AF:7b40 BC:0601 DE:bd8a HL:c3a4 SP:dfcf
03b1  and  a,a AF:0040 BC:0601 DE:bd8a HL:c3a4 SP:dfcf
03b2  jr   z,$03df AF:00a0 BC:0601 DE:bd8a HL:c3a4 SP:dfcf
03df  pop  af AF:00a0 BC:0601 DE:bd8a HL:c3a4 SP:dfcf
03e0  reti AF:7b40 BC:0601 DE:bd8a HL:c3a4 SP:dfd1
403e  ld   (de),a AF:7b40 BC:0601 DE:bd8a HL:c3a4 SP:dfd3
403f  dec  de AF:7b40 BC:0601 DE:bd8a HL:c3a4 SP:dfd3
4040  dec  c AF:7b40 BC:0601 DE:bd89 HL:c3a4 SP:dfd3
4041  jr   nz,$403d AF:7bc0 BC:0600 DE:bd89 HL:c3a4 SP:dfd3
4043  pop  hl AF:7bc0 BC:0600 DE:bd89 HL:c3a4 SP:dfd3
4044  ld   bc,$0014 AF:7bc0 BC:0600 DE:bd89 HL:c390 SP:dfd5
4047  add  hl,bc AF:7bc0 BC:0014 DE:bd89 HL:c390 SP:dfd5
4048  pop  bc AF:7b80 BC:0014 DE:bd89 HL:c3a4 SP:dfd5
4049  dec  b AF:7b80 BC:0614 DE:bd89 HL:c3a4 SP:dfd7
404a  jr   nz,$403b AF:7b40 BC:0514 DE:bd89 HL:c3a4 SP:dfd7
403b  push bc AF:7b40 BC:0514 DE:bd89 HL:c3a4 SP:dfd7
403c  push hl AF:7b40 BC:0514 DE:bd89 HL:c3a4 SP:dfd5
403d  ldi  a,(hl) AF:7b40 BC:0514 DE:bd89 HL:c3a4 SP:dfd3
403e  ld   (de),a AF:7c40 BC:0514 DE:bd89 HL:c3a5 SP:dfd3
403f  dec  de AF:7c40 BC:0514 DE:bd89 HL:c3a5 SP:dfd3
4040  dec  c AF:7c40 BC:0514 DE:bd88 HL:c3a5 SP:dfd3
4041  jr   nz,$403d AF:7c40 BC:0513 DE:bd88 HL:c3a5 SP:dfd3
403d  ldi  a,(hl) AF:7c40 BC:0513 DE:bd88 HL:c3a5 SP:dfd3
403e  ld   (de),a AF:7f40 BC:0513 DE:bd88 HL:c3a6 SP:dfd3
403f  dec  de AF:7f40 BC:0513 DE:bd88 HL:c3a6 SP:dfd3
4040  dec  c AF:7f40 BC:0513 DE:bd87 HL:c3a6 SP:dfd3
4041  jr   nz,$403d AF:7f40 BC:0512 DE:bd87 HL:c3a6 SP:dfd3
403d  ldi  a,(hl) AF:7f40 BC:0512 DE:bd87 HL:c3a6 SP:dfd3
403e  ld   (de),a AF:7f40 BC:0512 DE:bd87 HL:c3a7 SP:dfd3
403f  dec  de AF:7f40 BC:0512 DE:bd87 HL:c3a7 SP:dfd3
4040  dec  c AF:7f40 BC:0512 DE:bd86 HL:c3a7 SP:dfd3
4041  jr   nz,$403d AF:7f40 BC:0511 DE:bd86 HL:c3a7 SP:dfd3
403d  ldi  a,(hl) AF:7f40 BC:0511 DE:bd86 HL:c3a7 SP:dfd3
403e  ld   (de),a AF:7f40 BC:0511 DE:bd86 HL:c3a8 SP:dfd3
403f  dec  de AF:7f40 BC:0511 DE:bd86 HL:c3a8 SP:dfd3
4040  dec  c AF:7f40 BC:0511 DE:bd85 HL:c3a8 SP:dfd3
4041  jr   nz,$403d AF:7f40 BC:0510 DE:bd85 HL:c3a8 SP:dfd3
403d  ldi  a,(hl) AF:7f40 BC:0510 DE:bd85 HL:c3a8 SP:dfd3
403e  ld   (de),a AF:7f40 BC:0510 DE:bd85 HL:c3a9 SP:dfd3
403f  dec  de AF:7f40 BC:0510 DE:bd85 HL:c3a9 SP:dfd3
4040  dec  c AF:7f40 BC:0510 DE:bd84 HL:c3a9 SP:dfd3
4041  jr   nz,$403d AF:7f60 BC:050f DE:bd84 HL:c3a9 SP:dfd3
403d  ldi  a,(hl) AF:7f60 BC:050f DE:bd84 HL:c3a9 SP:dfd3
403e  ld   (de),a AF:7f60 BC:050f DE:bd84 HL:c3aa SP:dfd3
403f  dec  de AF:7f60 BC:050f DE:bd84 HL:c3aa SP:dfd3
4040  dec  c AF:7f60 BC:050f DE:bd83 HL:c3aa SP:dfd3
03ae  push af AF:7f60 BC:050f DE:bd83 HL:c3aa SP:dfd1
03af  ld   a,($ffd0) AF:7f60 BC:050f DE:bd83 HL:c3aa SP:dfcf
03b1  and  a,a AF:0060 BC:050f DE:bd83 HL:c3aa SP:dfcf
03b2  jr   z,$03df AF:00a0 BC:050f DE:bd83 HL:c3aa SP:dfcf
03df  pop  af AF:00a0 BC:050f DE:bd83 HL:c3aa SP:dfcf
03e0  reti AF:7f60 BC:050f DE:bd83 HL:c3aa SP:dfd1
4040  dec  c AF:7f60 BC:050f DE:bd83 HL:c3aa SP:dfd3
4041  jr   nz,$403d AF:7f40 BC:050e DE:bd83 HL:c3aa SP:dfd3
403d  ldi  a,(hl) AF:7f40 BC:050e DE:bd83 HL:c3aa SP:dfd3
403e  ld   (de),a AF:7f40 BC:050e DE:bd83 HL:c3ab SP:dfd3
403f  dec  de AF:7f40 BC:050e DE:bd83 HL:c3ab SP:dfd3
4040  dec  c AF:7f40 BC:050e DE:bd82 HL:c3ab SP:dfd3
4041  jr   nz,$403d AF:7f40 BC:050d DE:bd82 HL:c3ab SP:dfd3
403d  ldi  a,(hl) AF:7f40 BC:050d DE:bd82 HL:c3ab SP:dfd3
403e  ld   (de),a AF:7f40 BC:050d DE:bd82 HL:c3ac SP:dfd3
403f  dec  de AF:7f40 BC:050d DE:bd82 HL:c3ac SP:dfd3
4040  dec  c AF:7f40 BC:050d DE:bd81 HL:c3ac SP:dfd3
4041  jr   nz,$403d AF:7f40 BC:050c DE:bd81 HL:c3ac SP:dfd3
403d  ldi  a,(hl) AF:7f40 BC:050c DE:bd81 HL:c3ac SP:dfd3
403e  ld   (de),a AF:7f40 BC:050c DE:bd81 HL:c3ad SP:dfd3
403f  dec  de AF:7f40 BC:050c DE:bd81 HL:c3ad SP:dfd3
4040  dec  c AF:7f40 BC:050c DE:bd80 HL:c3ad SP:dfd3
4041  jr   nz,$403d AF:7f40 BC:050b DE:bd80 HL:c3ad SP:dfd3
403d  ldi  a,(hl) AF:7f40 BC:050b DE:bd80 HL:c3ad SP:dfd3
403e  ld   (de),a AF:7f40 BC:050b DE:bd80 HL:c3ae SP:dfd3
403f  dec  de AF:7f40 BC:050b DE:bd80 HL:c3ae SP:dfd3
4040  dec  c AF:7f40 BC:050b DE:bd7f HL:c3ae SP:dfd3
4041  jr   nz,$403d AF:7f40 BC:050a DE:bd7f HL:c3ae SP:dfd3
403d  ldi  a,(hl) AF:7f40 BC:050a DE:bd7f HL:c3ae SP:dfd3
403e  ld   (de),a AF:7f40 BC:050a DE:bd7f HL:c3af SP:dfd3
403f  dec  de AF:7f40 BC:050a DE:bd7f HL:c3af SP:dfd3
4040  dec  c AF:7f40 BC:050a DE:bd7e HL:c3af SP:dfd3
4041  jr   nz,$403d AF:7f40 BC:0509 DE:bd7e HL:c3af SP:dfd3
403d  ldi  a,(hl) AF:7f40 BC:0509 DE:bd7e HL:c3af SP:dfd3
403e  ld   (de),a AF:7f40 BC:0509 DE:bd7e HL:c3b0 SP:dfd3
403f  dec  de AF:7f40 BC:0509 DE:bd7e HL:c3b0 SP:dfd3
4040  dec  c AF:7f40 BC:0509 DE:bd7d HL:c3b0 SP:dfd3
4041  jr   nz,$403d AF:7f40 BC:0508 DE:bd7d HL:c3b0 SP:dfd3
403d  ldi  a,(hl) AF:7f40 BC:0508 DE:bd7d HL:c3b0 SP:dfd3
403e  ld   (de),a AF:7f40 BC:0508 DE:bd7d HL:c3b1 SP:dfd3
403f  dec  de AF:7f40 BC:0508 DE:bd7d HL:c3b1 SP:dfd3
4040  dec  c AF:7f40 BC:0508 DE:bd7c HL:c3b1 SP:dfd3
4041  jr   nz,$403d AF:7f40 BC:0507 DE:bd7c HL:c3b1 SP:dfd3
403d  ldi  a,(hl) AF:7f40 BC:0507 DE:bd7c HL:c3b1 SP:dfd3
403e  ld   (de),a AF:7f40 BC:0507 DE:bd7c HL:c3b2 SP:dfd3
403f  dec  de AF:7f40 BC:0507 DE:bd7c HL:c3b2 SP:dfd3
4040  dec  c AF:7f40 BC:0507 DE:bd7b HL:c3b2 SP:dfd3
4041  jr   nz,$403d AF:7f40 BC:0506 DE:bd7b HL:c3b2 SP:dfd3
403d  ldi  a,(hl) AF:7f40 BC:0506 DE:bd7b HL:c3b2 SP:dfd3
403e  ld   (de),a AF:7f40 BC:0506 DE:bd7b HL:c3b3 SP:dfd3
403f  dec  de AF:7f40 BC:0506 DE:bd7b HL:c3b3 SP:dfd3
03ae  push af AF:7f40 BC:0506 DE:bd7b HL:c3b3 SP:dfd1
03af  ld   a,($ffd0) AF:7f40 BC:0506 DE:bd7b HL:c3b3 SP:dfcf
03b1  and  a,a AF:0040 BC:0506 DE:bd7b HL:c3b3 SP:dfcf
03b2  jr   z,$03df AF:00a0 BC:0506 DE:bd7b HL:c3b3 SP:dfcf
03df  pop  af AF:00a0 BC:0506 DE:bd7b HL:c3b3 SP:dfcf
03e0  reti AF:7f40 BC:0506 DE:bd7b HL:c3b3 SP:dfd1
403f  dec  de AF:7f40 BC:0506 DE:bd7b HL:c3b3 SP:dfd3
4040  dec  c AF:7f40 BC:0506 DE:bd7a HL:c3b3 SP:dfd3
4041  jr   nz,$403d AF:7f40 BC:0505 DE:bd7a HL:c3b3 SP:dfd3
403d  ldi  a,(hl) AF:7f40 BC:0505 DE:bd7a HL:c3b3 SP:dfd3
403e  ld   (de),a AF:7f40 BC:0505 DE:bd7a HL:c3b4 SP:dfd3
403f  dec  de AF:7f40 BC:0505 DE:bd7a HL:c3b4 SP:dfd3
4040  dec  c AF:7f40 BC:0505 DE:bd79 HL:c3b4 SP:dfd3
4041  jr   nz,$403d AF:7f40 BC:0504 DE:bd79 HL:c3b4 SP:dfd3
403d  ldi  a,(hl) AF:7f40 BC:0504 DE:bd79 HL:c3b4 SP:dfd3
403e  ld   (de),a AF:7f40 BC:0504 DE:bd79 HL:c3b5 SP:dfd3
403f  dec  de AF:7f40 BC:0504 DE:bd79 HL:c3b5 SP:dfd3
4040  dec  c AF:7f40 BC:0504 DE:bd78 HL:c3b5 SP:dfd3
4041  jr   nz,$403d AF:7f40 BC:0503 DE:bd78 HL:c3b5 SP:dfd3
403d  ldi  a,(hl) AF:7f40 BC:0503 DE:bd78 HL:c3b5 SP:dfd3
403e  ld   (de),a AF:7f40 BC:0503 DE:bd78 HL:c3b6 SP:dfd3
403f  dec  de AF:7f40 BC:0503 DE:bd78 HL:c3b6 SP:dfd3
4040  dec  c AF:7f40 BC:0503 DE:bd77 HL:c3b6 SP:dfd3
4041  jr   nz,$403d AF:7f40 BC:0502 DE:bd77 HL:c3b6 SP:dfd3
403d  ldi  a,(hl) AF:7f40 BC:0502 DE:bd77 HL:c3b6 SP:dfd3
403e  ld   (de),a AF:7f40 BC:0502 DE:bd77 HL:c3b7 SP:dfd3
403f  dec  de AF:7f40 BC:0502 DE:bd77 HL:c3b7 SP:dfd3
4040  dec  c AF:7f40 BC:0502 DE:bd76 HL:c3b7 SP:dfd3
4041  jr   nz,$403d AF:7f40 BC:0501 DE:bd76 HL:c3b7 SP:dfd3
403d  ldi  a,(hl) AF:7f40 BC:0501 DE:bd76 HL:c3b7 SP:dfd3
403e  ld   (de),a AF:7c40 BC:0501 DE:bd76 HL:c3b8 SP:dfd3
403f  dec  de AF:7c40 BC:0501 DE:bd76 HL:c3b8 SP:dfd3
4040  dec  c AF:7c40 BC:0501 DE:bd75 HL:c3b8 SP:dfd3
4041  jr   nz,$403d AF:7cc0 BC:0500 DE:bd75 HL:c3b8 SP:dfd3
4043  pop  hl AF:7cc0 BC:0500 DE:bd75 HL:c3b8 SP:dfd3
4044  ld   bc,$0014 AF:7cc0 BC:0500 DE:bd75 HL:c3a4 SP:dfd5
4047  add  hl,bc AF:7cc0 BC:0014 DE:bd75 HL:c3a4 SP:dfd5
4048  pop  bc AF:7c80 BC:0014 DE:bd75 HL:c3b8 SP:dfd5
4049  dec  b AF:7c80 BC:0514 DE:bd75 HL:c3b8 SP:dfd7
404a  jr   nz,$403b AF:7c40 BC:0414 DE:bd75 HL:c3b8 SP:dfd7
403b  push bc AF:7c40 BC:0414 DE:bd75 HL:c3b8 SP:dfd7
403c  push hl AF:7c40 BC:0414 DE:bd75 HL:c3b8 SP:dfd5
403d  ldi  a,(hl) AF:7c40 BC:0414 DE:bd75 HL:c3b8 SP:dfd3
403e  ld   (de),a AF:7c40 BC:0414 DE:bd75 HL:c3b9 SP:dfd3
403f  dec  de AF:7c40 BC:0414 DE:bd75 HL:c3b9 SP:dfd3
4040  dec  c AF:7c40 BC:0414 DE:bd74 HL:c3b9 SP:dfd3
4041  jr   nz,$403d AF:7c40 BC:0413 DE:bd74 HL:c3b9 SP:dfd3
403d  ldi  a,(hl) AF:7c40 BC:0413 DE:bd74 HL:c3b9 SP:dfd3
03ae  push af AF:7c40 BC:0413 DE:bd74 HL:c3b9 SP:dfd1
03af  ld   a,($ffd0) AF:7c40 BC:0413 DE:bd74 HL:c3b9 SP:dfcf
03b1  and  a,a AF:0040 BC:0413 DE:bd74 HL:c3b9 SP:dfcf
03b2  jr   z,$03df AF:00a0 BC:0413 DE:bd74 HL:c3b9 SP:dfcf
03df  pop  af AF:00a0 BC:0413 DE:bd74 HL:c3b9 SP:dfcf
03e0  reti AF:7c40 BC:0413 DE:bd74 HL:c3b9 SP:dfd1
403d  ldi  a,(hl) AF:7c40 BC:0413 DE:bd74 HL:c3b9 SP:dfd3
403e  ld   (de),a AF:7f40 BC:0413 DE:bd74 HL:c3ba SP:dfd3
403f  dec  de AF:7f40 BC:0413 DE:bd74 HL:c3ba SP:dfd3
4040  dec  c AF:7f40 BC:0413 DE:bd73 HL:c3ba SP:dfd3
4041  jr   nz,$403d AF:7f40 BC:0412 DE:bd73 HL:c3ba SP:dfd3
403d  ldi  a,(hl) AF:7f40 BC:0412 DE:bd73 HL:c3ba SP:dfd3
403e  ld   (de),a AF:7f40 BC:0412 DE:bd73 HL:c3bb SP:dfd3
403f  dec  de AF:7f40 BC:0412 DE:bd73 HL:c3bb SP:dfd3
4040  dec  c AF:7f40 BC:0412 DE:bd72 HL:c3bb SP:dfd3
4041  jr   nz,$403d AF:7f40 BC:0411 DE:bd72 HL:c3bb SP:dfd3
403d  ldi  a,(hl) AF:7f40 BC:0411 DE:bd72 HL:c3bb SP:dfd3
403e  ld   (de),a AF:7f40 BC:0411 DE:bd72 HL:c3bc SP:dfd3
403f  dec  de AF:7f40 BC:0411 DE:bd72 HL:c3bc SP:dfd3
4040  dec  c AF:7f40 BC:0411 DE:bd71 HL:c3bc SP:dfd3
4041  jr   nz,$403d AF:7f40 BC:0410 DE:bd71 HL:c3bc SP:dfd3
403d  ldi  a,(hl) AF:7f40 BC:0410 DE:bd71 HL:c3bc SP:dfd3
403e  ld   (de),a AF:7f40 BC:0410 DE:bd71 HL:c3bd SP:dfd3
403f  dec  de AF:7f40 BC:0410 DE:bd71 HL:c3bd SP:dfd3
4040  dec  c AF:7f40 BC:0410 DE:bd70 HL:c3bd SP:dfd3
4041  jr   nz,$403d AF:7f60 BC:040f DE:bd70 HL:c3bd SP:dfd3
403d  ldi  a,(hl) AF:7f60 BC:040f DE:bd70 HL:c3bd SP:dfd3
403e  ld   (de),a AF:7f60 BC:040f DE:bd70 HL:c3be SP:dfd3
403f  dec  de AF:7f60 BC:040f DE:bd70 HL:c3be SP:dfd3
4040  dec  c AF:7f60 BC:040f DE:bd6f HL:c3be SP:dfd3
4041  jr   nz,$403d AF:7f40 BC:040e DE:bd6f HL:c3be SP:dfd3
403d  ldi  a,(hl) AF:7f40 BC:040e DE:bd6f HL:c3be SP:dfd3
403e  ld   (de),a AF:7f40 BC:040e DE:bd6f HL:c3bf SP:dfd3
403f  dec  de AF:7f40 BC:040e DE:bd6f HL:c3bf SP:dfd3
4040  dec  c AF:7f40 BC:040e DE:bd6e HL:c3bf SP:dfd3
4041  jr   nz,$403d AF:7f40 BC:040d DE:bd6e HL:c3bf SP:dfd3
403d  ldi  a,(hl) AF:7f40 BC:040d DE:bd6e HL:c3bf SP:dfd3
403e  ld   (de),a AF:7f40 BC:040d DE:bd6e HL:c3c0 SP:dfd3
403f  dec  de AF:7f40 BC:040d DE:bd6e HL:c3c0 SP:dfd3
4040  dec  c AF:7f40 BC:040d DE:bd6d HL:c3c0 SP:dfd3
4041  jr   nz,$403d AF:7f40 BC:040c DE:bd6d HL:c3c0 SP:dfd3
403d  ldi  a,(hl) AF:7f40 BC:040c DE:bd6d HL:c3c0 SP:dfd3
403e  ld   (de),a AF:7f40 BC:040c DE:bd6d HL:c3c1 SP:dfd3
403f  dec  de AF:7f40 BC:040c DE:bd6d HL:c3c1 SP:dfd3
4040  dec  c AF:7f40 BC:040c DE:bd6c HL:c3c1 SP:dfd3
4041  jr   nz,$403d AF:7f40 BC:040b DE:bd6c HL:c3c1 SP:dfd3
403d  ldi  a,(hl) AF:7f40 BC:040b DE:bd6c HL:c3c1 SP:dfd3
403e  ld   (de),a AF:7f40 BC:040b DE:bd6c HL:c3c2 SP:dfd3
403f  dec  de AF:7f40 BC:040b DE:bd6c HL:c3c2 SP:dfd3
4040  dec  c AF:7f40 BC:040b DE:bd6b HL:c3c2 SP:dfd3
03ae  push af AF:7f40 BC:040b DE:bd6b HL:c3c2 SP:dfd1
03af  ld   a,($ffd0) AF:7f40 BC:040b DE:bd6b HL:c3c2 SP:dfcf
03b1  and  a,a AF:0040 BC:040b DE:bd6b HL:c3c2 SP:dfcf
03b2  jr   z,$03df AF:00a0 BC:040b DE:bd6b HL:c3c2 SP:dfcf
03df  pop  af AF:00a0 BC:040b DE:bd6b HL:c3c2 SP:dfcf
03e0  reti AF:7f40 BC:040b DE:bd6b HL:c3c2 SP:dfd1
4040  dec  c AF:7f40 BC:040b DE:bd6b HL:c3c2 SP:dfd3
4041  jr   nz,$403d AF:7f40 BC:040a DE:bd6b HL:c3c2 SP:dfd3
403d  ldi  a,(hl) AF:7f40 BC:040a DE:bd6b HL:c3c2 SP:dfd3
403e  ld   (de),a AF:7f40 BC:040a DE:bd6b HL:c3c3 SP:dfd3
403f  dec  de AF:7f40 BC:040a DE:bd6b HL:c3c3 SP:dfd3
4040  dec  c AF:7f40 BC:040a DE:bd6a HL:c3c3 SP:dfd3
4041  jr   nz,$403d AF:7f40 BC:0409 DE:bd6a HL:c3c3 SP:dfd3
403d  ldi  a,(hl) AF:7f40 BC:0409 DE:bd6a HL:c3c3 SP:dfd3
403e  ld   (de),a AF:7f40 BC:0409 DE:bd6a HL:c3c4 SP:dfd3
403f  dec  de AF:7f40 BC:0409 DE:bd6a HL:c3c4 SP:dfd3
4040  dec  c AF:7f40 BC:0409 DE:bd69 HL:c3c4 SP:dfd3
4041  jr   nz,$403d AF:7f40 BC:0408 DE:bd69 HL:c3c4 SP:dfd3
403d  ldi  a,(hl) AF:7f40 BC:0408 DE:bd69 HL:c3c4 SP:dfd3
403e  ld   (de),a AF:7f40 BC:0408 DE:bd69 HL:c3c5 SP:dfd3
403f  dec  de AF:7f40 BC:0408 DE:bd69 HL:c3c5 SP:dfd3
4040  dec  c AF:7f40 BC:0408 DE:bd68 HL:c3c5 SP:dfd3
4041  jr   nz,$403d AF:7f40 BC:0407 DE:bd68 HL:c3c5 SP:dfd3
403d  ldi  a,(hl) AF:7f40 BC:0407 DE:bd68 HL:c3c5 SP:dfd3
403e  ld   (de),a AF:7f40 BC:0407 DE:bd68 HL:c3c6 SP:dfd3
403f  dec  de AF:7f40 BC:0407 DE:bd68 HL:c3c6 SP:dfd3
4040  dec  c AF:7f40 BC:0407 DE:bd67 HL:c3c6 SP:dfd3
4041  jr   nz,$403d AF:7f40 BC:0406 DE:bd67 HL:c3c6 SP:dfd3
403d  ldi  a,(hl) AF:7f40 BC:0406 DE:bd67 HL:c3c6 SP:dfd3
403e  ld   (de),a AF:7f40 BC:0406 DE:bd67 HL:c3c7 SP:dfd3
403f  dec  de AF:7f40 BC:0406 DE:bd67 HL:c3c7 SP:dfd3
4040  dec  c AF:7f40 BC:0406 DE:bd66 HL:c3c7 SP:dfd3
4041  jr   nz,$403d AF:7f40 BC:0405 DE:bd66 HL:c3c7 SP:dfd3
403d  ldi  a,(hl) AF:7f40 BC:0405 DE:bd66 HL:c3c7 SP:dfd3
403e  ld   (de),a AF:7f40 BC:0405 DE:bd66 HL:c3c8 SP:dfd3
403f  dec  de AF:7f40 BC:0405 DE:bd66 HL:c3c8 SP:dfd3
4040  dec  c AF:7f40 BC:0405 DE:bd65 HL:c3c8 SP:dfd3
4041  jr   nz,$403d AF:7f40 BC:0404 DE:bd65 HL:c3c8 SP:dfd3
403d  ldi  a,(hl) AF:7f40 BC:0404 DE:bd65 HL:c3c8 SP:dfd3
403e  ld   (de),a AF:7f40 BC:0404 DE:bd65 HL:c3c9 SP:dfd3
403f  dec  de AF:7f40 BC:0404 DE:bd65 HL:c3c9 SP:dfd3
4040  dec  c AF:7f40 BC:0404 DE:bd64 HL:c3c9 SP:dfd3
4041  jr   nz,$403d AF:7f40 BC:0403 DE:bd64 HL:c3c9 SP:dfd3
403d  ldi  a,(hl) AF:7f40 BC:0403 DE:bd64 HL:c3c9 SP:dfd3
403e  ld   (de),a AF:7f40 BC:0403 DE:bd64 HL:c3ca SP:dfd3
403f  dec  de AF:7f40 BC:0403 DE:bd64 HL:c3ca SP:dfd3
4040  dec  c AF:7f40 BC:0403 DE:bd63 HL:c3ca SP:dfd3
4041  jr   nz,$403d AF:7f40 BC:0402 DE:bd63 HL:c3ca SP:dfd3
403d  ldi  a,(hl) AF:7f40 BC:0402 DE:bd63 HL:c3ca SP:dfd3
403e  ld   (de),a AF:7f40 BC:0402 DE:bd63 HL:c3cb SP:dfd3
03ae  push af AF:7f40 BC:0402 DE:bd63 HL:c3cb SP:dfd1
03af  ld   a,($ffd0) AF:7f40 BC:0402 DE:bd63 HL:c3cb SP:dfcf
03b1  and  a,a AF:0040 BC:0402 DE:bd63 HL:c3cb SP:dfcf
03b2  jr   z,$03df AF:00a0 BC:0402 DE:bd63 HL:c3cb SP:dfcf
03df  pop  af AF:00a0 BC:0402 DE:bd63 HL:c3cb SP:dfcf
03e0  reti AF:7f40 BC:0402 DE:bd63 HL:c3cb SP:dfd1
403e  ld   (de),a AF:7f40 BC:0402 DE:bd63 HL:c3cb SP:dfd3
403f  dec  de AF:7f40 BC:0402 DE:bd63 HL:c3cb SP:dfd3
4040  dec  c AF:7f40 BC:0402 DE:bd62 HL:c3cb SP:dfd3
4041  jr   nz,$403d AF:7f40 BC:0401 DE:bd62 HL:c3cb SP:dfd3
403d  ldi  a,(hl) AF:7f40 BC:0401 DE:bd62 HL:c3cb SP:dfd3
403e  ld   (de),a AF:7c40 BC:0401 DE:bd62 HL:c3cc SP:dfd3
403f  dec  de AF:7c40 BC:0401 DE:bd62 HL:c3cc SP:dfd3
4040  dec  c AF:7c40 BC:0401 DE:bd61 HL:c3cc SP:dfd3
4041  jr   nz,$403d AF:7cc0 BC:0400 DE:bd61 HL:c3cc SP:dfd3
4043  pop  hl AF:7cc0 BC:0400 DE:bd61 HL:c3cc SP:dfd3
4044  ld   bc,$0014 AF:7cc0 BC:0400 DE:bd61 HL:c3b8 SP:dfd5
4047  add  hl,bc AF:7cc0 BC:0014 DE:bd61 HL:c3b8 SP:dfd5
4048  pop  bc AF:7c80 BC:0014 DE:bd61 HL:c3cc SP:dfd5
4049  dec  b AF:7c80 BC:0414 DE:bd61 HL:c3cc SP:dfd7
404a  jr   nz,$403b AF:7c40 BC:0314 DE:bd61 HL:c3cc SP:dfd7
403b  push bc AF:7c40 BC:0314 DE:bd61 HL:c3cc SP:dfd7
403c  push hl AF:7c40 BC:0314 DE:bd61 HL:c3cc SP:dfd5
403d  ldi  a,(hl) AF:7c40 BC:0314 DE:bd61 HL:c3cc SP:dfd3
403e  ld   (de),a AF:7c40 BC:0314 DE:bd61 HL:c3cd SP:dfd3
403f  dec  de AF:7c40 BC:0314 DE:bd61 HL:c3cd SP:dfd3
4040  dec  c AF:7c40 BC:0314 DE:bd60 HL:c3cd SP:dfd3
4041  jr   nz,$403d AF:7c40 BC:0313 DE:bd60 HL:c3cd SP:dfd3
403d  ldi  a,(hl) AF:7c40 BC:0313 DE:bd60 HL:c3cd SP:dfd3
403e  ld   (de),a AF:7f40 BC:0313 DE:bd60 HL:c3ce SP:dfd3
403f  dec  de AF:7f40 BC:0313 DE:bd60 HL:c3ce SP:dfd3
4040  dec  c AF:7f40 BC:0313 DE:bd5f HL:c3ce SP:dfd3
4041  jr   nz,$403d AF:7f40 BC:0312 DE:bd5f HL:c3ce SP:dfd3
403d  ldi  a,(hl) AF:7f40 BC:0312 DE:bd5f HL:c3ce SP:dfd3
403e  ld   (de),a AF:7f40 BC:0312 DE:bd5f HL:c3cf SP:dfd3
403f  dec  de AF:7f40 BC:0312 DE:bd5f HL:c3cf SP:dfd3
4040  dec  c AF:7f40 BC:0312 DE:bd5e HL:c3cf SP:dfd3
4041  jr   nz,$403d AF:7f40 BC:0311 DE:bd5e HL:c3cf SP:dfd3
403d  ldi  a,(hl) AF:7f40 BC:0311 DE:bd5e HL:c3cf SP:dfd3
403e  ld   (de),a AF:7f40 BC:0311 DE:bd5e HL:c3d0 SP:dfd3
403f  dec  de AF:7f40 BC:0311 DE:bd5e HL:c3d0 SP:dfd3
4040  dec  c AF:7f40 BC:0311 DE:bd5d HL:c3d0 SP:dfd3
4041  jr   nz,$403d AF:7f40 BC:0310 DE:bd5d HL:c3d0 SP:dfd3
403d  ldi  a,(hl) AF:7f40 BC:0310 DE:bd5d HL:c3d0 SP:dfd3
403e  ld   (de),a AF:7f40 BC:0310 DE:bd5d HL:c3d1 SP:dfd3
403f  dec  de AF:7f40 BC:0310 DE:bd5d HL:c3d1 SP:dfd3
4040  dec  c AF:7f40 BC:0310 DE:bd5c HL:c3d1 SP:dfd3
4041  jr   nz,$403d AF:7f60 BC:030f DE:bd5c HL:c3d1 SP:dfd3
03ae  push af AF:7f60 BC:030f DE:bd5c HL:c3d1 SP:dfd1
03af  ld   a,($ffd0) AF:7f60 BC:030f DE:bd5c HL:c3d1 SP:dfcf
03b1  and  a,a AF:0060 BC:030f DE:bd5c HL:c3d1 SP:dfcf
03b2  jr   z,$03df AF:00a0 BC:030f DE:bd5c HL:c3d1 SP:dfcf
03df  pop  af AF:00a0 BC:030f DE:bd5c HL:c3d1 SP:dfcf
03e0  reti AF:7f60 BC:030f DE:bd5c HL:c3d1 SP:dfd1
4041  jr   nz,$403d AF:7f60 BC:030f DE:bd5c HL:c3d1 SP:dfd3
403d  ldi  a,(hl) AF:7f60 BC:030f DE:bd5c HL:c3d1 SP:dfd3
403e  ld   (de),a AF:7f60 BC:030f DE:bd5c HL:c3d2 SP:dfd3
403f  dec  de AF:7f60 BC:030f DE:bd5c HL:c3d2 SP:dfd3
4040  dec  c AF:7f60 BC:030f DE:bd5b HL:c3d2 SP:dfd3
4041  jr   nz,$403d AF:7f40 BC:030e DE:bd5b HL:c3d2 SP:dfd3
403d  ldi  a,(hl) AF:7f40 BC:030e DE:bd5b HL:c3d2 SP:dfd3
403e  ld   (de),a AF:7f40 BC:030e DE:bd5b HL:c3d3 SP:dfd3
403f  dec  de AF:7f40 BC:030e DE:bd5b HL:c3d3 SP:dfd3
4040  dec  c AF:7f40 BC:030e DE:bd5a HL:c3d3 SP:dfd3
4041  jr   nz,$403d AF:7f40 BC:030d DE:bd5a HL:c3d3 SP:dfd3
403d  ldi  a,(hl) AF:7f40 BC:030d DE:bd5a HL:c3d3 SP:dfd3
403e  ld   (de),a AF:7f40 BC:030d DE:bd5a HL:c3d4 SP:dfd3
403f  dec  de AF:7f40 BC:030d DE:bd5a HL:c3d4 SP:dfd3
4040  dec  c AF:7f40 BC:030d DE:bd59 HL:c3d4 SP:dfd3
4041  jr   nz,$403d AF:7f40 BC:030c DE:bd59 HL:c3d4 SP:dfd3
403d  ldi  a,(hl) AF:7f40 BC:030c DE:bd59 HL:c3d4 SP:dfd3
403e  ld   (de),a AF:7f40 BC:030c DE:bd59 HL:c3d5 SP:dfd3
403f  dec  de AF:7f40 BC:030c DE:bd59 HL:c3d5 SP:dfd3
4040  dec  c AF:7f40 BC:030c DE:bd58 HL:c3d5 SP:dfd3
4041  jr   nz,$403d AF:7f40 BC:030b DE:bd58 HL:c3d5 SP:dfd3
403d  ldi  a,(hl) AF:7f40 BC:030b DE:bd58 HL:c3d5 SP:dfd3
403e  ld   (de),a AF:7f40 BC:030b DE:bd58 HL:c3d6 SP:dfd3
403f  dec  de AF:7f40 BC:030b DE:bd58 HL:c3d6 SP:dfd3
4040  dec  c AF:7f40 BC:030b DE:bd57 HL:c3d6 SP:dfd3
4041  jr   nz,$403d AF:7f40 BC:030a DE:bd57 HL:c3d6 SP:dfd3
403d  ldi  a,(hl) AF:7f40 BC:030a DE:bd57 HL:c3d6 SP:dfd3
403e  ld   (de),a AF:7f40 BC:030a DE:bd57 HL:c3d7 SP:dfd3
403f  dec  de AF:7f40 BC:030a DE:bd57 HL:c3d7 SP:dfd3
4040  dec  c AF:7f40 BC:030a DE:bd56 HL:c3d7 SP:dfd3
4041  jr   nz,$403d AF:7f40 BC:0309 DE:bd56 HL:c3d7 SP:dfd3
403d  ldi  a,(hl) AF:7f40 BC:0309 DE:bd56 HL:c3d7 SP:dfd3
403e  ld   (de),a AF:7f40 BC:0309 DE:bd56 HL:c3d8 SP:dfd3
403f  dec  de AF:7f40 BC:0309 DE:bd56 HL:c3d8 SP:dfd3
4040  dec  c AF:7f40 BC:0309 DE:bd55 HL:c3d8 SP:dfd3
4041  jr   nz,$403d AF:7f40 BC:0308 DE:bd55 HL:c3d8 SP:dfd3
403d  ldi  a,(hl) AF:7f40 BC:0308 DE:bd55 HL:c3d8 SP:dfd3
403e  ld   (de),a AF:7f40 BC:0308 DE:bd55 HL:c3d9 SP:dfd3
403f  dec  de AF:7f40 BC:0308 DE:bd55 HL:c3d9 SP:dfd3
4040  dec  c AF:7f40 BC:0308 DE:bd54 HL:c3d9 SP:dfd3
4041  jr   nz,$403d AF:7f40 BC:0307 DE:bd54 HL:c3d9 SP:dfd3
403d  ldi  a,(hl) AF:7f40 BC:0307 DE:bd54 HL:c3d9 SP:dfd3
403e  ld   (de),a AF:7f40 BC:0307 DE:bd54 HL:c3da SP:dfd3
403f  dec  de AF:7f40 BC:0307 DE:bd54 HL:c3da SP:dfd3
03ae  push af AF:7f40 BC:0307 DE:bd54 HL:c3da SP:dfd1
03af  ld   a,($ffd0) AF:7f40 BC:0307 DE:bd54 HL:c3da SP:dfcf
03b1  and  a,a AF:0040 BC:0307 DE:bd54 HL:c3da SP:dfcf
03b2  jr   z,$03df AF:00a0 BC:0307 DE:bd54 HL:c3da SP:dfcf
03df  pop  af AF:00a0 BC:0307 DE:bd54 HL:c3da SP:dfcf
03e0  reti AF:7f40 BC:0307 DE:bd54 HL:c3da SP:dfd1
403f  dec  de AF:7f40 BC:0307 DE:bd54 HL:c3da SP:dfd3
4040  dec  c AF:7f40 BC:0307 DE:bd53 HL:c3da SP:dfd3
4041  jr   nz,$403d AF:7f40 BC:0306 DE:bd53 HL:c3da SP:dfd3
403d  ldi  a,(hl) AF:7f40 BC:0306 DE:bd53 HL:c3da SP:dfd3
403e  ld   (de),a AF:7f40 BC:0306 DE:bd53 HL:c3db SP:dfd3
403f  dec  de AF:7f40 BC:0306 DE:bd53 HL:c3db SP:dfd3
4040  dec  c AF:7f40 BC:0306 DE:bd52 HL:c3db SP:dfd3
4041  jr   nz,$403d AF:7f40 BC:0305 DE:bd52 HL:c3db SP:dfd3
403d  ldi  a,(hl) AF:7f40 BC:0305 DE:bd52 HL:c3db SP:dfd3
403e  ld   (de),a AF:7f40 BC:0305 DE:bd52 HL:c3dc SP:dfd3
403f  dec  de AF:7f40 BC:0305 DE:bd52 HL:c3dc SP:dfd3
4040  dec  c AF:7f40 BC:0305 DE:bd51 HL:c3dc SP:dfd3
4041  jr   nz,$403d AF:7f40 BC:0304 DE:bd51 HL:c3dc SP:dfd3
403d  ldi  a,(hl) AF:7f40 BC:0304 DE:bd51 HL:c3dc SP:dfd3
403e  ld   (de),a AF:7f40 BC:0304 DE:bd51 HL:c3dd SP:dfd3
403f  dec  de AF:7f40 BC:0304 DE:bd51 HL:c3dd SP:dfd3
4040  dec  c AF:7f40 BC:0304 DE:bd50 HL:c3dd SP:dfd3
4041  jr   nz,$403d AF:7f40 BC:0303 DE:bd50 HL:c3dd SP:dfd3
403d  ldi  a,(hl) AF:7f40 BC:0303 DE:bd50 HL:c3dd SP:dfd3
403e  ld   (de),a AF:7f40 BC:0303 DE:bd50 HL:c3de SP:dfd3
403f  dec  de AF:7f40 BC:0303 DE:bd50 HL:c3de SP:dfd3
4040  dec  c AF:7f40 BC:0303 DE:bd4f HL:c3de SP:dfd3
4041  jr   nz,$403d AF:7f40 BC:0302 DE:bd4f HL:c3de SP:dfd3
403d  ldi  a,(hl) AF:7f40 BC:0302 DE:bd4f HL:c3de SP:dfd3
403e  ld   (de),a AF:7f40 BC:0302 DE:bd4f HL:c3df SP:dfd3
403f  dec  de AF:7f40 BC:0302 DE:bd4f HL:c3df SP:dfd3
4040  dec  c AF:7f40 BC:0302 DE:bd4e HL:c3df SP:dfd3
4041  jr   nz,$403d AF:7f40 BC:0301 DE:bd4e HL:c3df SP:dfd3
403d  ldi  a,(hl) AF:7f40 BC:0301 DE:bd4e HL:c3df SP:dfd3
403e  ld   (de),a AF:7c40 BC:0301 DE:bd4e HL:c3e0 SP:dfd3
403f  dec  de AF:7c40 BC:0301 DE:bd4e HL:c3e0 SP:dfd3
4040  dec  c AF:7c40 BC:0301 DE:bd4d HL:c3e0 SP:dfd3
4041  jr   nz,$403d AF:7cc0 BC:0300 DE:bd4d HL:c3e0 SP:dfd3
4043  pop  hl AF:7cc0 BC:0300 DE:bd4d HL:c3e0 SP:dfd3
4044  ld   bc,$0014 AF:7cc0 BC:0300 DE:bd4d HL:c3cc SP:dfd5
4047  add  hl,bc AF:7cc0 BC:0014 DE:bd4d HL:c3cc SP:dfd5
4048  pop  bc AF:7c80 BC:0014 DE:bd4d HL:c3e0 SP:dfd5
4049  dec  b AF:7c80 BC:0314 DE:bd4d HL:c3e0 SP:dfd7
404a  jr   nz,$403b AF:7c40 BC:0214 DE:bd4d HL:c3e0 SP:dfd7
403b  push bc AF:7c40 BC:0214 DE:bd4d HL:c3e0 SP:dfd7
403c  push hl AF:7c40 BC:0214 DE:bd4d HL:c3e0 SP:dfd5
403d  ldi  a,(hl) AF:7c40 BC:0214 DE:bd4d HL:c3e0 SP:dfd3
03ae  push af AF:7c40 BC:0214 DE:bd4d HL:c3e0 SP:dfd1
03af  ld   a,($ffd0) AF:7c40 BC:0214 DE:bd4d HL:c3e0 SP:dfcf
03b1  and  a,a AF:0040 BC:0214 DE:bd4d HL:c3e0 SP:dfcf
03b2  jr   z,$03df AF:00a0 BC:0214 DE:bd4d HL:c3e0 SP:dfcf
03df  pop  af AF:00a0 BC:0214 DE:bd4d HL:c3e0 SP:dfcf
03e0  reti AF:7c40 BC:0214 DE:bd4d HL:c3e0 SP:dfd1
403d  ldi  a,(hl) AF:7c40 BC:0214 DE:bd4d HL:c3e0 SP:dfd3
403e  ld   (de),a AF:7c40 BC:0214 DE:bd4d HL:c3e1 SP:dfd3
403f  dec  de AF:7c40 BC:0214 DE:bd4d HL:c3e1 SP:dfd3
4040  dec  c AF:7c40 BC:0214 DE:bd4c HL:c3e1 SP:dfd3
4041  jr   nz,$403d AF:7c40 BC:0213 DE:bd4c HL:c3e1 SP:dfd3
403d  ldi  a,(hl) AF:7c40 BC:0213 DE:bd4c HL:c3e1 SP:dfd3
403e  ld   (de),a AF:7f40 BC:0213 DE:bd4c HL:c3e2 SP:dfd3
403f  dec  de AF:7f40 BC:0213 DE:bd4c HL:c3e2 SP:dfd3
4040  dec  c AF:7f40 BC:0213 DE:bd4b HL:c3e2 SP:dfd3
4041  jr   nz,$403d AF:7f40 BC:0212 DE:bd4b HL:c3e2 SP:dfd3
403d  ldi  a,(hl) AF:7f40 BC:0212 DE:bd4b HL:c3e2 SP:dfd3
403e  ld   (de),a AF:7f40 BC:0212 DE:bd4b HL:c3e3 SP:dfd3
403f  dec  de AF:7f40 BC:0212 DE:bd4b HL:c3e3 SP:dfd3
4040  dec  c AF:7f40 BC:0212 DE:bd4a HL:c3e3 SP:dfd3
4041  jr   nz,$403d AF:7f40 BC:0211 DE:bd4a HL:c3e3 SP:dfd3
403d  ldi  a,(hl) AF:7f40 BC:0211 DE:bd4a HL:c3e3 SP:dfd3
403e  ld   (de),a AF:7f40 BC:0211 DE:bd4a HL:c3e4 SP:dfd3
403f  dec  de AF:7f40 BC:0211 DE:bd4a HL:c3e4 SP:dfd3
4040  dec  c AF:7f40 BC:0211 DE:bd49 HL:c3e4 SP:dfd3
4041  jr   nz,$403d AF:7f40 BC:0210 DE:bd49 HL:c3e4 SP:dfd3
403d  ldi  a,(hl) AF:7f40 BC:0210 DE:bd49 HL:c3e4 SP:dfd3
403e  ld   (de),a AF:7f40 BC:0210 DE:bd49 HL:c3e5 SP:dfd3
403f  dec  de AF:7f40 BC:0210 DE:bd49 HL:c3e5 SP:dfd3
4040  dec  c AF:7f40 BC:0210 DE:bd48 HL:c3e5 SP:dfd3
4041  jr   nz,$403d AF:7f60 BC:020f DE:bd48 HL:c3e5 SP:dfd3
403d  ldi  a,(hl) AF:7f60 BC:020f DE:bd48 HL:c3e5 SP:dfd3
403e  ld   (de),a AF:7f60 BC:020f DE:bd48 HL:c3e6 SP:dfd3
403f  dec  de AF:7f60 BC:020f DE:bd48 HL:c3e6 SP:dfd3
4040  dec  c AF:7f60 BC:020f DE:bd47 HL:c3e6 SP:dfd3
4041  jr   nz,$403d AF:7f40 BC:020e DE:bd47 HL:c3e6 SP:dfd3
403d  ldi  a,(hl) AF:7f40 BC:020e DE:bd47 HL:c3e6 SP:dfd3
403e  ld   (de),a AF:7f40 BC:020e DE:bd47 HL:c3e7 SP:dfd3
403f  dec  de AF:7f40 BC:020e DE:bd47 HL:c3e7 SP:dfd3
4040  dec  c AF:7f40 BC:020e DE:bd46 HL:c3e7 SP:dfd3
4041  jr   nz,$403d AF:7f40 BC:020d DE:bd46 HL:c3e7 SP:dfd3
403d  ldi  a,(hl) AF:7f40 BC:020d DE:bd46 HL:c3e7 SP:dfd3
403e  ld   (de),a AF:7f40 BC:020d DE:bd46 HL:c3e8 SP:dfd3
403f  dec  de AF:7f40 BC:020d DE:bd46 HL:c3e8 SP:dfd3
4040  dec  c AF:7f40 BC:020d DE:bd45 HL:c3e8 SP:dfd3
4041  jr   nz,$403d AF:7f40 BC:020c DE:bd45 HL:c3e8 SP:dfd3
403d  ldi  a,(hl) AF:7f40 BC:020c DE:bd45 HL:c3e8 SP:dfd3
403e  ld   (de),a AF:7f40 BC:020c DE:bd45 HL:c3e9 SP:dfd3
403f  dec  de AF:7f40 BC:020c DE:bd45 HL:c3e9 SP:dfd3
4040  dec  c AF:7f40 BC:020c DE:bd44 HL:c3e9 SP:dfd3
03ae  push af AF:7f40 BC:020c DE:bd44 HL:c3e9 SP:dfd1
03af  ld   a,($ffd0) AF:7f40 BC:020c DE:bd44 HL:c3e9 SP:dfcf
03b1  and  a,a AF:0040 BC:020c DE:bd44 HL:c3e9 SP:dfcf
03b2  jr   z,$03df AF:00a0 BC:020c DE:bd44 HL:c3e9 SP:dfcf
03df  pop  af AF:00a0 BC:020c DE:bd44 HL:c3e9 SP:dfcf
03e0  reti AF:7f40 BC:020c DE:bd44 HL:c3e9 SP:dfd1
4040  dec  c AF:7f40 BC:020c DE:bd44 HL:c3e9 SP:dfd3
4041  jr   nz,$403d AF:7f40 BC:020b DE:bd44 HL:c3e9 SP:dfd3
403d  ldi  a,(hl) AF:7f40 BC:020b DE:bd44 HL:c3e9 SP:dfd3
403e  ld   (de),a AF:7f40 BC:020b DE:bd44 HL:c3ea SP:dfd3
403f  dec  de AF:7f40 BC:020b DE:bd44 HL:c3ea SP:dfd3
4040  dec  c AF:7f40 BC:020b DE:bd43 HL:c3ea SP:dfd3
4041  jr   nz,$403d AF:7f40 BC:020a DE:bd43 HL:c3ea SP:dfd3
403d  ldi  a,(hl) AF:7f40 BC:020a DE:bd43 HL:c3ea SP:dfd3
403e  ld   (de),a AF:7f40 BC:020a DE:bd43 HL:c3eb SP:dfd3
403f  dec  de AF:7f40 BC:020a DE:bd43 HL:c3eb SP:dfd3
4040  dec  c AF:7f40 BC:020a DE:bd42 HL:c3eb SP:dfd3
4041  jr   nz,$403d AF:7f40 BC:0209 DE:bd42 HL:c3eb SP:dfd3
403d  ldi  a,(hl) AF:7f40 BC:0209 DE:bd42 HL:c3eb SP:dfd3
403e  ld   (de),a AF:7f40 BC:0209 DE:bd42 HL:c3ec SP:dfd3
403f  dec  de AF:7f40 BC:0209 DE:bd42 HL:c3ec SP:dfd3
4040  dec  c AF:7f40 BC:0209 DE:bd41 HL:c3ec SP:dfd3
4041  jr   nz,$403d AF:7f40 BC:0208 DE:bd41 HL:c3ec SP:dfd3
403d  ldi  a,(hl) AF:7f40 BC:0208 DE:bd41 HL:c3ec SP:dfd3
403e  ld   (de),a AF:7f40 BC:0208 DE:bd41 HL:c3ed SP:dfd3
403f  dec  de AF:7f40 BC:0208 DE:bd41 HL:c3ed SP:dfd3
4040  dec  c AF:7f40 BC:0208 DE:bd40 HL:c3ed SP:dfd3
4041  jr   nz,$403d AF:7f40 BC:0207 DE:bd40 HL:c3ed SP:dfd3
403d  ldi  a,(hl) AF:7f40 BC:0207 DE:bd40 HL:c3ed SP:dfd3
403e  ld   (de),a AF:7f40 BC:0207 DE:bd40 HL:c3ee SP:dfd3
403f  dec  de AF:7f40 BC:0207 DE:bd40 HL:c3ee SP:dfd3
4040  dec  c AF:7f40 BC:0207 DE:bd3f HL:c3ee SP:dfd3
4041  jr   nz,$403d AF:7f40 BC:0206 DE:bd3f HL:c3ee SP:dfd3
403d  ldi  a,(hl) AF:7f40 BC:0206 DE:bd3f HL:c3ee SP:dfd3
403e  ld   (de),a AF:7f40 BC:0206 DE:bd3f HL:c3ef SP:dfd3
403f  dec  de AF:7f40 BC:0206 DE:bd3f HL:c3ef SP:dfd3
4040  dec  c AF:7f40 BC:0206 DE:bd3e HL:c3ef SP:dfd3
4041  jr   nz,$403d AF:7f40 BC:0205 DE:bd3e HL:c3ef SP:dfd3
403d  ldi  a,(hl) AF:7f40 BC:0205 DE:bd3e HL:c3ef SP:dfd3
403e  ld   (de),a AF:7f40 BC:0205 DE:bd3e HL:c3f0 SP:dfd3
403f  dec  de AF:7f40 BC:0205 DE:bd3e HL:c3f0 SP:dfd3
4040  dec  c AF:7f40 BC:0205 DE:bd3d HL:c3f0 SP:dfd3
4041  jr   nz,$403d AF:7f40 BC:0204 DE:bd3d HL:c3f0 SP:dfd3
403d  ldi  a,(hl) AF:7f40 BC:0204 DE:bd3d HL:c3f0 SP:dfd3
403e  ld   (de),a AF:7f40 BC:0204 DE:bd3d HL:c3f1 SP:dfd3
403f  dec  de AF:7f40 BC:0204 DE:bd3d HL:c3f1 SP:dfd3
4040  dec  c AF:7f40 BC:0204 DE:bd3c HL:c3f1 SP:dfd3
4041  jr   nz,$403d AF:7f40 BC:0203 DE:bd3c HL:c3f1 SP:dfd3
403d  ldi  a,(hl) AF:7f40 BC:0203 DE:bd3c HL:c3f1 SP:dfd3
403e  ld   (de),a AF:7f40 BC:0203 DE:bd3c HL:c3f2 SP:dfd3
403f  dec  de AF:7f40 BC:0203 DE:bd3c HL:c3f2 SP:dfd3
03ae  push af AF:7f40 BC:0203 DE:bd3c HL:c3f2 SP:dfd1
03af  ld   a,($ffd0) AF:7f40 BC:0203 DE:bd3c HL:c3f2 SP:dfcf
03b1  and  a,a AF:0040 BC:0203 DE:bd3c HL:c3f2 SP:dfcf
03b2  jr   z,$03df AF:00a0 BC:0203 DE:bd3c HL:c3f2 SP:dfcf
03df  pop  af AF:00a0 BC:0203 DE:bd3c HL:c3f2 SP:dfcf
03e0  reti AF:7f40 BC:0203 DE:bd3c HL:c3f2 SP:dfd1
403f  dec  de AF:7f40 BC:0203 DE:bd3c HL:c3f2 SP:dfd3
4040  dec  c AF:7f40 BC:0203 DE:bd3b HL:c3f2 SP:dfd3
4041  jr   nz,$403d AF:7f40 BC:0202 DE:bd3b HL:c3f2 SP:dfd3
403d  ldi  a,(hl) AF:7f40 BC:0202 DE:bd3b HL:c3f2 SP:dfd3
403e  ld   (de),a AF:7f40 BC:0202 DE:bd3b HL:c3f3 SP:dfd3
403f  dec  de AF:7f40 BC:0202 DE:bd3b HL:c3f3 SP:dfd3
4040  dec  c AF:7f40 BC:0202 DE:bd3a HL:c3f3 SP:dfd3
4041  jr   nz,$403d AF:7f40 BC:0201 DE:bd3a HL:c3f3 SP:dfd3
403d  ldi  a,(hl) AF:7f40 BC:0201 DE:bd3a HL:c3f3 SP:dfd3
403e  ld   (de),a AF:7c40 BC:0201 DE:bd3a HL:c3f4 SP:dfd3
403f  dec  de AF:7c40 BC:0201 DE:bd3a HL:c3f4 SP:dfd3
4040  dec  c AF:7c40 BC:0201 DE:bd39 HL:c3f4 SP:dfd3
4041  jr   nz,$403d AF:7cc0 BC:0200 DE:bd39 HL:c3f4 SP:dfd3
4043  pop  hl AF:7cc0 BC:0200 DE:bd39 HL:c3f4 SP:dfd3
4044  ld   bc,$0014 AF:7cc0 BC:0200 DE:bd39 HL:c3e0 SP:dfd5
4047  add  hl,bc AF:7cc0 BC:0014 DE:bd39 HL:c3e0 SP:dfd5
4048  pop  bc AF:7c80 BC:0014 DE:bd39 HL:c3f4 SP:dfd5
4049  dec  b AF:7c80 BC:0214 DE:bd39 HL:c3f4 SP:dfd7
404a  jr   nz,$403b AF:7c40 BC:0114 DE:bd39 HL:c3f4 SP:dfd7
403b  push bc AF:7c40 BC:0114 DE:bd39 HL:c3f4 SP:dfd7
403c  push hl AF:7c40 BC:0114 DE:bd39 HL:c3f4 SP:dfd5
403d  ldi  a,(hl) AF:7c40 BC:0114 DE:bd39 HL:c3f4 SP:dfd3
403e  ld   (de),a AF:7d40 BC:0114 DE:bd39 HL:c3f5 SP:dfd3
403f  dec  de AF:7d40 BC:0114 DE:bd39 HL:c3f5 SP:dfd3
4040  dec  c AF:7d40 BC:0114 DE:bd38 HL:c3f5 SP:dfd3
4041  jr   nz,$403d AF:7d40 BC:0113 DE:bd38 HL:c3f5 SP:dfd3
403d  ldi  a,(hl) AF:7d40 BC:0113 DE:bd38 HL:c3f5 SP:dfd3
403e  ld   (de),a AF:7a40 BC:0113 DE:bd38 HL:c3f6 SP:dfd3
403f  dec  de AF:7a40 BC:0113 DE:bd38 HL:c3f6 SP:dfd3
4040  dec  c AF:7a40 BC:0113 DE:bd37 HL:c3f6 SP:dfd3
4041  jr   nz,$403d AF:7a40 BC:0112 DE:bd37 HL:c3f6 SP:dfd3
403d  ldi  a,(hl) AF:7a40 BC:0112 DE:bd37 HL:c3f6 SP:dfd3
403e  ld   (de),a AF:7a40 BC:0112 DE:bd37 HL:c3f7 SP:dfd3
403f  dec  de AF:7a40 BC:0112 DE:bd37 HL:c3f7 SP:dfd3
4040  dec  c AF:7a40 BC:0112 DE:bd36 HL:c3f7 SP:dfd3
4041  jr   nz,$403d AF:7a40 BC:0111 DE:bd36 HL:c3f7 SP:dfd3
403d  ldi  a,(hl) AF:7a40 BC:0111 DE:bd36 HL:c3f7 SP:dfd3
403e  ld   (de),a AF:7a40 BC:0111 DE:bd36 HL:c3f8 SP:dfd3
403f  dec  de AF:7a40 BC:0111 DE:bd36 HL:c3f8 SP:dfd3
4040  dec  c AF:7a40 BC:0111 DE:bd35 HL:c3f8 SP:dfd3
4041  jr   nz,$403d AF:7a40 BC:0110 DE:bd35 HL:c3f8 SP:dfd3
403d  ldi  a,(hl) AF:7a40 BC:0110 DE:bd35 HL:c3f8 SP:dfd3
03ae  push af AF:7a40 BC:0110 DE:bd35 HL:c3f8 SP:dfd1
03af  ld   a,($ffd0) AF:7a40 BC:0110 DE:bd35 HL:c3f8 SP:dfcf
03b1  and  a,a AF:0040 BC:0110 DE:bd35 HL:c3f8 SP:dfcf
03b2  jr   z,$03df AF:00a0 BC:0110 DE:bd35 HL:c3f8 SP:dfcf
03df  pop  af AF:00a0 BC:0110 DE:bd35 HL:c3f8 SP:dfcf
03e0  reti AF:7a40 BC:0110 DE:bd35 HL:c3f8 SP:dfd1
403d  ldi  a,(hl) AF:7a40 BC:0110 DE:bd35 HL:c3f8 SP:dfd3
403e  ld   (de),a AF:7a40 BC:0110 DE:bd35 HL:c3f9 SP:dfd3
403f  dec  de AF:7a40 BC:0110 DE:bd35 HL:c3f9 SP:dfd3
4040  dec  c AF:7a40 BC:0110 DE:bd34 HL:c3f9 SP:dfd3
4041  jr   nz,$403d AF:7a60 BC:010f DE:bd34 HL:c3f9 SP:dfd3
403d  ldi  a,(hl) AF:7a60 BC:010f DE:bd34 HL:c3f9 SP:dfd3
403e  ld   (de),a AF:7a60 BC:010f DE:bd34 HL:c3fa SP:dfd3
403f  dec  de AF:7a60 BC:010f DE:bd34 HL:c3fa SP:dfd3
4040  dec  c AF:7a60 BC:010f DE:bd33 HL:c3fa SP:dfd3
4041  jr   nz,$403d AF:7a40 BC:010e DE:bd33 HL:c3fa SP:dfd3
403d  ldi  a,(hl) AF:7a40 BC:010e DE:bd33 HL:c3fa SP:dfd3
403e  ld   (de),a AF:7a40 BC:010e DE:bd33 HL:c3fb SP:dfd3
403f  dec  de AF:7a40 BC:010e DE:bd33 HL:c3fb SP:dfd3
4040  dec  c AF:7a40 BC:010e DE:bd32 HL:c3fb SP:dfd3
4041  jr   nz,$403d AF:7a40 BC:010d DE:bd32 HL:c3fb SP:dfd3
403d  ldi  a,(hl) AF:7a40 BC:010d DE:bd32 HL:c3fb SP:dfd3
403e  ld   (de),a AF:7a40 BC:010d DE:bd32 HL:c3fc SP:dfd3
403f  dec  de AF:7a40 BC:010d DE:bd32 HL:c3fc SP:dfd3
4040  dec  c AF:7a40 BC:010d DE:bd31 HL:c3fc SP:dfd3
4041  jr   nz,$403d AF:7a40 BC:010c DE:bd31 HL:c3fc SP:dfd3
403d  ldi  a,(hl) AF:7a40 BC:010c DE:bd31 HL:c3fc SP:dfd3
403e  ld   (de),a AF:7a40 BC:010c DE:bd31 HL:c3fd SP:dfd3
403f  dec  de AF:7a40 BC:010c DE:bd31 HL:c3fd SP:dfd3
4040  dec  c AF:7a40 BC:010c DE:bd30 HL:c3fd SP:dfd3
4041  jr   nz,$403d AF:7a40 BC:010b DE:bd30 HL:c3fd SP:dfd3
403d  ldi  a,(hl) AF:7a40 BC:010b DE:bd30 HL:c3fd SP:dfd3
403e  ld   (de),a AF:7a40 BC:010b DE:bd30 HL:c3fe SP:dfd3
403f  dec  de AF:7a40 BC:010b DE:bd30 HL:c3fe SP:dfd3
4040  dec  c AF:7a40 BC:010b DE:bd2f HL:c3fe SP:dfd3
4041  jr   nz,$403d AF:7a40 BC:010a DE:bd2f HL:c3fe SP:dfd3
403d  ldi  a,(hl) AF:7a40 BC:010a DE:bd2f HL:c3fe SP:dfd3
403e  ld   (de),a AF:7a40 BC:010a DE:bd2f HL:c3ff SP:dfd3
403f  dec  de AF:7a40 BC:010a DE:bd2f HL:c3ff SP:dfd3
4040  dec  c AF:7a40 BC:010a DE:bd2e HL:c3ff SP:dfd3
4041  jr   nz,$403d AF:7a40 BC:0109 DE:bd2e HL:c3ff SP:dfd3
403d  ldi  a,(hl) AF:7a40 BC:0109 DE:bd2e HL:c3ff SP:dfd3
403e  ld   (de),a AF:7a40 BC:0109 DE:bd2e HL:c400 SP:dfd3
403f  dec  de AF:7a40 BC:0109 DE:bd2e HL:c400 SP:dfd3
4040  dec  c AF:7a40 BC:0109 DE:bd2d HL:c400 SP:dfd3
4041  jr   nz,$403d AF:7a40 BC:0108 DE:bd2d HL:c400 SP:dfd3
403d  ldi  a,(hl) AF:7a40 BC:0108 DE:bd2d HL:c400 SP:dfd3
403e  ld   (de),a AF:7a40 BC:0108 DE:bd2d HL:c401 SP:dfd3
403f  dec  de AF:7a40 BC:0108 DE:bd2d HL:c401 SP:dfd3
4040  dec  c AF:7a40 BC:0108 DE:bd2c HL:c401 SP:dfd3
03ae  push af AF:7a40 BC:0108 DE:bd2c HL:c401 SP:dfd1
03af  ld   a,($ffd0) AF:7a40 BC:0108 DE:bd2c HL:c401 SP:dfcf
03b1  and  a,a AF:0040 BC:0108 DE:bd2c HL:c401 SP:dfcf
03b2  jr   z,$03df AF:00a0 BC:0108 DE:bd2c HL:c401 SP:dfcf
03df  pop  af AF:00a0 BC:0108 DE:bd2c HL:c401 SP:dfcf
03e0  reti AF:7a40 BC:0108 DE:bd2c HL:c401 SP:dfd1
4040  dec  c AF:7a40 BC:0108 DE:bd2c HL:c401 SP:dfd3
4041  jr   nz,$403d AF:7a40 BC:0107 DE:bd2c HL:c401 SP:dfd3
403d  ldi  a,(hl) AF:7a40 BC:0107 DE:bd2c HL:c401 SP:dfd3
403e  ld   (de),a AF:7a40 BC:0107 DE:bd2c HL:c402 SP:dfd3
403f  dec  de AF:7a40 BC:0107 DE:bd2c HL:c402 SP:dfd3
4040  dec  c AF:7a40 BC:0107 DE:bd2b HL:c402 SP:dfd3
4041  jr   nz,$403d AF:7a40 BC:0106 DE:bd2b HL:c402 SP:dfd3
403d  ldi  a,(hl) AF:7a40 BC:0106 DE:bd2b HL:c402 SP:dfd3
403e  ld   (de),a AF:7a40 BC:0106 DE:bd2b HL:c403 SP:dfd3
403f  dec  de AF:7a40 BC:0106 DE:bd2b HL:c403 SP:dfd3
4040  dec  c AF:7a40 BC:0106 DE:bd2a HL:c403 SP:dfd3
4041  jr   nz,$403d AF:7a40 BC:0105 DE:bd2a HL:c403 SP:dfd3
403d  ldi  a,(hl) AF:7a40 BC:0105 DE:bd2a HL:c403 SP:dfd3
403e  ld   (de),a AF:7a40 BC:0105 DE:bd2a HL:c404 SP:dfd3
403f  dec  de AF:7a40 BC:0105 DE:bd2a HL:c404 SP:dfd3
4040  dec  c AF:7a40 BC:0105 DE:bd29 HL:c404 SP:dfd3
4041  jr   nz,$403d AF:7a40 BC:0104 DE:bd29 HL:c404 SP:dfd3
403d  ldi  a,(hl) AF:7a40 BC:0104 DE:bd29 HL:c404 SP:dfd3
403e  ld   (de),a AF:7a40 BC:0104 DE:bd29 HL:c405 SP:dfd3
403f  dec  de AF:7a40 BC:0104 DE:bd29 HL:c405 SP:dfd3
4040  dec  c AF:7a40 BC:0104 DE:bd28 HL:c405 SP:dfd3
4041  jr   nz,$403d AF:7a40 BC:0103 DE:bd28 HL:c405 SP:dfd3
403d  ldi  a,(hl) AF:7a40 BC:0103 DE:bd28 HL:c405 SP:dfd3
403e  ld   (de),a AF:7a40 BC:0103 DE:bd28 HL:c406 SP:dfd3
403f  dec  de AF:7a40 BC:0103 DE:bd28 HL:c406 SP:dfd3
4040  dec  c AF:7a40 BC:0103 DE:bd27 HL:c406 SP:dfd3
4041  jr   nz,$403d AF:7a40 BC:0102 DE:bd27 HL:c406 SP:dfd3
403d  ldi  a,(hl) AF:7a40 BC:0102 DE:bd27 HL:c406 SP:dfd3
403e  ld   (de),a AF:7a40 BC:0102 DE:bd27 HL:c407 SP:dfd3
403f  dec  de AF:7a40 BC:0102 DE:bd27 HL:c407 SP:dfd3
4040  dec  c AF:7a40 BC:0102 DE:bd26 HL:c407 SP:dfd3
4041  jr   nz,$403d AF:7a40 BC:0101 DE:bd26 HL:c407 SP:dfd3
403d  ldi  a,(hl) AF:7a40 BC:0101 DE:bd26 HL:c407 SP:dfd3
403e  ld   (de),a AF:7e40 BC:0101 DE:bd26 HL:c408 SP:dfd3
403f  dec  de AF:7e40 BC:0101 DE:bd26 HL:c408 SP:dfd3
4040  dec  c AF:7e40 BC:0101 DE:bd25 HL:c408 SP:dfd3
4041  jr   nz,$403d AF:7ec0 BC:0100 DE:bd25 HL:c408 SP:dfd3
4043  pop  hl AF:7ec0 BC:0100 DE:bd25 HL:c408 SP:dfd3
4044  ld   bc,$0014 AF:7ec0 BC:0100 DE:bd25 HL:c3f4 SP:dfd5
4047  add  hl,bc AF:7ec0 BC:0014 DE:bd25 HL:c3f4 SP:dfd5
4048  pop  bc AF:7e80 BC:0014 DE:bd25 HL:c408 SP:dfd5
4049  dec  b AF:7e80 BC:0114 DE:bd25 HL:c408 SP:dfd7
404a  jr   nz,$403b AF:7ec0 BC:0014 DE:bd25 HL:c408 SP:dfd7
404c  jr   $4055 AF:7ec0 BC:0014 DE:bd25 HL:c408 SP:dfd7
03ae  push af AF:7ec0 BC:0014 DE:bd25 HL:c408 SP:dfd5
03af  ld   a,($ffd0) AF:7ec0 BC:0014 DE:bd25 HL:c408 SP:dfd3
03b1  and  a,a AF:00c0 BC:0014 DE:bd25 HL:c408 SP:dfd3
03b2  jr   z,$03df AF:00a0 BC:0014 DE:bd25 HL:c408 SP:dfd3
03df  pop  af AF:00a0 BC:0014 DE:bd25 HL:c408 SP:dfd3
03e0  reti AF:7ec0 BC:0014 DE:bd25 HL:c408 SP:dfd5
404c  jr   $4055 AF:7ec0 BC:0014 DE:bd25 HL:c408 SP:dfd7
4055  pop  hl AF:7ec0 BC:0014 DE:bd25 HL:c408 SP:dfd7
4056  call $406d AF:7ec0 BC:0014 DE:bd25 HL:bdad SP:dfd9
406d  push bc AF:7ec0 BC:0014 DE:bd25 HL:bdad SP:dfd7
406e  push de AF:7ec0 BC:0014 DE:bd25 HL:bdad SP:dfd5
406f  push hl AF:7ec0 BC:0014 DE:bd25 HL:bdad SP:dfd3
4070  xor  a,a AF:7ec0 BC:0014 DE:bd25 HL:bdad SP:dfd1
4071  ld   l,c AF:0080 BC:0014 DE:bd25 HL:bdad SP:dfd1
4072  ld   h,$00 AF:0080 BC:0014 DE:bd25 HL:bd14 SP:dfd1
4074  ld   c,b AF:0080 BC:0014 DE:bd25 HL:0014 SP:dfd1
4075  ld   b,$00 AF:0080 BC:0000 DE:bd25 HL:0014 SP:dfd1
4077  ld   a,$14 AF:0080 BC:0000 DE:bd25 HL:0014 SP:dfd1
4079  call $33ed AF:1480 BC:0000 DE:bd25 HL:0014 SP:dfd1
33ed  and  a,a AF:1480 BC:0000 DE:bd25 HL:0014 SP:dfcf
33ee  ret  z AF:1420 BC:0000 DE:bd25 HL:0014 SP:dfcf
33ef  add  hl,bc AF:1420 BC:0000 DE:bd25 HL:0014 SP:dfcf
33f0  dec  a AF:1400 BC:0000 DE:bd25 HL:0014 SP:dfcf
33f1  jr   nz,$33ef AF:1340 BC:0000 DE:bd25 HL:0014 SP:dfcf
33ef  add  hl,bc AF:1340 BC:0000 DE:bd25 HL:0014 SP:dfcf
33f0  dec  a AF:1300 BC:0000 DE:bd25 HL:0014 SP:dfcf
33f1  jr   nz,$33ef AF:1240 BC:0000 DE:bd25 HL:0014 SP:dfcf
33ef  add  hl,bc AF:1240 BC:0000 DE:bd25 HL:0014 SP:dfcf
33f0  dec  a AF:1200 BC:0000 DE:bd25 HL:0014 SP:dfcf
33f1  jr   nz,$33ef AF:1140 BC:0000 DE:bd25 HL:0014 SP:dfcf
33ef  add  hl,bc AF:1140 BC:0000 DE:bd25 HL:0014 SP:dfcf
33f0  dec  a AF:1100 BC:0000 DE:bd25 HL:0014 SP:dfcf
33f1  jr   nz,$33ef AF:1040 BC:0000 DE:bd25 HL:0014 SP:dfcf
33ef  add  hl,bc AF:1040 BC:0000 DE:bd25 HL:0014 SP:dfcf
33f0  dec  a AF:1000 BC:0000 DE:bd25 HL:0014 SP:dfcf
33f1  jr   nz,$33ef AF:0f60 BC:0000 DE:bd25 HL:0014 SP:dfcf
33ef  add  hl,bc AF:0f60 BC:0000 DE:bd25 HL:0014 SP:dfcf
33f0  dec  a AF:0f00 BC:0000 DE:bd25 HL:0014 SP:dfcf
33f1  jr   nz,$33ef AF:0e40 BC:0000 DE:bd25 HL:0014 SP:dfcf
33ef  add  hl,bc AF:0e40 BC:0000 DE:bd25 HL:0014 SP:dfcf
33f0  dec  a AF:0e00 BC:0000 DE:bd25 HL:0014 SP:dfcf
33f1  jr   nz,$33ef AF:0d40 BC:0000 DE:bd25 HL:0014 SP:dfcf
33ef  add  hl,bc AF:0d40 BC:0000 DE:bd25 HL:0014 SP:dfcf
33f0  dec  a AF:0d00 BC:0000 DE:bd25 HL:0014 SP:dfcf
03ae  push af AF:0d00 BC:0000 DE:bd25 HL:0014 SP:dfcd
03af  ld   a,($ffd0) AF:0d00 BC:0000 DE:bd25 HL:0014 SP:dfcb
03b1  and  a,a AF:0000 BC:0000 DE:bd25 HL:0014 SP:dfcb
03b2  jr   z,$03df AF:00a0 BC:0000 DE:bd25 HL:0014 SP:dfcb
03df  pop  af AF:00a0 BC:0000 DE:bd25 HL:0014 SP:dfcb
03e0  reti AF:0d00 BC:0000 DE:bd25 HL:0014 SP:dfcd
33f0  dec  a AF:0d00 BC:0000 DE:bd25 HL:0014 SP:dfcf
33f1  jr   nz,$33ef AF:0c40 BC:0000 DE:bd25 HL:0014 SP:dfcf
33ef  add  hl,bc AF:0c40 BC:0000 DE:bd25 HL:0014 SP:dfcf
33f0  dec  a AF:0c00 BC:0000 DE:bd25 HL:0014 SP:dfcf
33f1  jr   nz,$33ef AF:0b40 BC:0000 DE:bd25 HL:0014 SP:dfcf
33ef  add  hl,bc AF:0b40 BC:0000 DE:bd25 HL:0014 SP:dfcf
33f0  dec  a AF:0b00 BC:0000 DE:bd25 HL:0014 SP:dfcf
33f1  jr   nz,$33ef AF:0a40 BC:0000 DE:bd25 HL:0014 SP:dfcf
33ef  add  hl,bc AF:0a40 BC:0000 DE:bd25 HL:0014 SP:dfcf
33f0  dec  a AF:0a00 BC:0000 DE:bd25 HL:0014 SP:dfcf
33f1  jr   nz,$33ef AF:0940 BC:0000 DE:bd25 HL:0014 SP:dfcf
33ef  add  hl,bc AF:0940 BC:0000 DE:bd25 HL:0014 SP:dfcf
33f0  dec  a AF:0900 BC:0000 DE:bd25 HL:0014 SP:dfcf
33f1  jr   nz,$33ef AF:0840 BC:0000 DE:bd25 HL:0014 SP:dfcf
33ef  add  hl,bc AF:0840 BC:0000 DE:bd25 HL:0014 SP:dfcf
33f0  dec  a AF:0800 BC:0000 DE:bd25 HL:0014 SP:dfcf
33f1  jr   nz,$33ef AF:0740 BC:0000 DE:bd25 HL:0014 SP:dfcf
33ef  add  hl,bc AF:0740 BC:0000 DE:bd25 HL:0014 SP:dfcf
33f0  dec  a AF:0700 BC:0000 DE:bd25 HL:0014 SP:dfcf
33f1  jr   nz,$33ef AF:0640 BC:0000 DE:bd25 HL:0014 SP:dfcf
33ef  add  hl,bc AF:0640 BC:0000 DE:bd25 HL:0014 SP:dfcf
33f0  dec  a AF:0600 BC:0000 DE:bd25 HL:0014 SP:dfcf
33f1  jr   nz,$33ef AF:0540 BC:0000 DE:bd25 HL:0014 SP:dfcf
33ef  add  hl,bc AF:0540 BC:0000 DE:bd25 HL:0014 SP:dfcf
33f0  dec  a AF:0500 BC:0000 DE:bd25 HL:0014 SP:dfcf
33f1  jr   nz,$33ef AF:0440 BC:0000 DE:bd25 HL:0014 SP:dfcf
33ef  add  hl,bc AF:0440 BC:0000 DE:bd25 HL:0014 SP:dfcf
33f0  dec  a AF:0400 BC:0000 DE:bd25 HL:0014 SP:dfcf
33f1  jr   nz,$33ef AF:0340 BC:0000 DE:bd25 HL:0014 SP:dfcf
33ef  add  hl,bc AF:0340 BC:0000 DE:bd25 HL:0014 SP:dfcf
33f0  dec  a AF:0300 BC:0000 DE:bd25 HL:0014 SP:dfcf
33f1  jr   nz,$33ef AF:0240 BC:0000 DE:bd25 HL:0014 SP:dfcf
33ef  add  hl,bc AF:0240 BC:0000 DE:bd25 HL:0014 SP:dfcf
33f0  dec  a AF:0200 BC:0000 DE:bd25 HL:0014 SP:dfcf
33f1  jr   nz,$33ef AF:0140 BC:0000 DE:bd25 HL:0014 SP:dfcf
33ef  add  hl,bc AF:0140 BC:0000 DE:bd25 HL:0014 SP:dfcf
33f0  dec  a AF:0100 BC:0000 DE:bd25 HL:0014 SP:dfcf
33f1  jr   nz,$33ef AF:00c0 BC:0000 DE:bd25 HL:0014 SP:dfcf
33f3  ret AF:00c0 BC:0000 DE:bd25 HL:0014 SP:dfcf
407c  ld   a,h AF:00c0 BC:0000 DE:bd25 HL:0014 SP:dfd1
407d  cpl AF:00c0 BC:0000 DE:bd25 HL:0014 SP:dfd1
407e  ld   h,a AF:ffe0 BC:0000 DE:bd25 HL:0014 SP:dfd1
407f  ld   a,l AF:ffe0 BC:0000 DE:bd25 HL:ff14 SP:dfd1
4080  cpl AF:14e0 BC:0000 DE:bd25 HL:ff14 SP:dfd1
4081  ld   l,a AF:ebe0 BC:0000 DE:bd25 HL:ff14 SP:dfd1
4082  inc  hl AF:ebe0 BC:0000 DE:bd25 HL:ffeb SP:dfd1
4083  add  hl,de AF:ebe0 BC:0000 DE:bd25 HL:ffec SP:dfd1
03ae  push af AF:ebe0 BC:0000 DE:bd25 HL:ffec SP:dfcf
03af  ld   a,($ffd0) AF:ebe0 BC:0000 DE:bd25 HL:ffec SP:dfcd
03b1  and  a,a AF:00e0 BC:0000 DE:bd25 HL:ffec SP:dfcd
03b2  jr   z,$03df AF:00a0 BC:0000 DE:bd25 HL:ffec SP:dfcd
03df  pop  af AF:00a0 BC:0000 DE:bd25 HL:ffec SP:dfcd
03e0  reti AF:ebe0 BC:0000 DE:bd25 HL:ffec SP:dfcf
4083  add  hl,de AF:ebe0 BC:0000 DE:bd25 HL:ffec SP:dfd1
4084  ld   a,e AF:ebb0 BC:0000 DE:bd25 HL:bd11 SP:dfd1
4085  sub  a,$00 AF:25b0 BC:0000 DE:bd25 HL:bd11 SP:dfd1
4087  ld   a,d AF:2540 BC:0000 DE:bd25 HL:bd11 SP:dfd1
4088  sbc  a,$b8 AF:bd40 BC:0000 DE:bd25 HL:bd11 SP:dfd1
408a  jr   c,$4090 AF:0540 BC:0000 DE:bd25 HL:bd11 SP:dfd1
408c  pop  hl AF:0540 BC:0000 DE:bd25 HL:bd11 SP:dfd1
408d  pop  de AF:0540 BC:0000 DE:bd25 HL:bdad SP:dfd3
408e  pop  bc AF:0540 BC:0000 DE:bd25 HL:bdad SP:dfd5
408f  ret AF:0540 BC:0014 DE:bd25 HL:bdad SP:dfd7
4059  ld   a,h AF:0540 BC:0014 DE:bd25 HL:bdad SP:dfd9
405a  ld   (de),a AF:bd40 BC:0014 DE:bd25 HL:bdad SP:dfd9
405b  dec  de AF:bd40 BC:0014 DE:bd25 HL:bdad SP:dfd9
405c  ld   a,l AF:bd40 BC:0014 DE:bd24 HL:bdad SP:dfd9
405d  ld   (de),a AF:ad40 BC:0014 DE:bd24 HL:bdad SP:dfd9
405e  dec  de AF:ad40 BC:0014 DE:bd24 HL:bdad SP:dfd9
405f  ld   hl,$cbf2 AF:ad40 BC:0014 DE:bd23 HL:bdad SP:dfd9
4062  ld   (hl),e AF:ad40 BC:0014 DE:bd23 HL:cbf2 SP:dfd9
4063  inc  hl AF:ad40 BC:0014 DE:bd23 HL:cbf2 SP:dfd9
4064  ld   (hl),d AF:ad40 BC:0014 DE:bd23 HL:cbf3 SP:dfd9
4065  call $327b AF:ad40 BC:0014 DE:bd23 HL:cbf3 SP:dfd9
327b  push af AF:ad40 BC:0014 DE:bd23 HL:cbf3 SP:dfd7
327c  ld   a,$00 AF:ad40 BC:0014 DE:bd23 HL:cbf3 SP:dfd5
327e  ld   ($6000),a AF:0040 BC:0014 DE:bd23 HL:cbf3 SP:dfd5
3281  ld   ($0000),a AF:0040 BC:0014 DE:bd23 HL:cbf3 SP:dfd5
3284  pop  af AF:0040 BC:0014 DE:bd23 HL:cbf3 SP:dfd5
3285  ret AF:ad40 BC:0014 DE:bd23 HL:cbf3 SP:dfd7
4068  ld   hl,$cbf9 AF:ad40 BC:0014 DE:bd23 HL:cbf3 SP:dfd9
406b  inc  (hl) AF:ad40 BC:0014 DE:bd23 HL:cbf9 SP:dfd9
406c  ret AF:ad00 BC:0014 DE:bd23 HL:cbf9 SP:dfd9
2f8c  ld   a,b AF:ad00 BC:0014 DE:bd23 HL:cbf9 SP:dfdb
2f8d  ld   ($cd54),a AF:0000 BC:0014 DE:bd23 HL:cbf9 SP:dfdb
2f90  ld   a,c AF:0000 BC:0014 DE:bd23 HL:cbf9 SP:dfdb
2f91  ld   ($cd55),a AF:1400 BC:0014 DE:bd23 HL:cbf9 SP:dfdb
2f94  pop  bc AF:1400 BC:0014 DE:bd23 HL:cbf9 SP:dfdb
03ae  push af AF:1400 BC:0014 DE:bd23 HL:cbf9 SP:dfd9
03af  ld   a,($ffd0) AF:1400 BC:0014 DE:bd23 HL:cbf9 SP:dfd7
03b1  and  a,a AF:0000 BC:0014 DE:bd23 HL:cbf9 SP:dfd7
03b2  jr   z,$03df AF:00a0 BC:0014 DE:bd23 HL:cbf9 SP:dfd7
03df  pop  af AF:00a0 BC:0014 DE:bd23 HL:cbf9 SP:dfd7
03e0  reti AF:1400 BC:0014 DE:bd23 HL:cbf9 SP:dfd9
2f94  pop  bc AF:1400 BC:0014 DE:bd23 HL:cbf9 SP:dfdb
2f95  ld   a,b AF:1400 BC:04c0 DE:bd23 HL:cbf9 SP:dfdd
2f96  call $3286 AF:0400 BC:04c0 DE:bd23 HL:cbf9 SP:dfdd
3286  ld   ($ff98),a AF:0400 BC:04c0 DE:bd23 HL:cbf9 SP:dfdb
3288  ld   ($2000),a AF:0400 BC:04c0 DE:bd23 HL:cbf9 SP:dfdb
328b  ret AF:0400 BC:04c0 DE:bd23 HL:cbf9 SP:dfdb
2f99  ld   a,($cd54) AF:0400 BC:04c0 DE:bd23 HL:cbf9 SP:dfdd
2f9c  ld   b,a AF:0000 BC:04c0 DE:bd23 HL:cbf9 SP:dfdd
2f9d  ld   a,($cd55) AF:0000 BC:00c0 DE:bd23 HL:cbf9 SP:dfdd
2fa0  ld   c,a AF:1400 BC:00c0 DE:bd23 HL:cbf9 SP:dfdd
2fa1  ret AF:1400 BC:0014 DE:bd23 HL:cbf9 SP:dfdd
1d4f  ret AF:1400 BC:0014 DE:bd23 HL:cbf9 SP:dfdf
1d60  pop  hl AF:1400 BC:0014 DE:bd23 HL:cbf9 SP:dfe1
1d61  jp   $0e70 AF:1400 BC:0014 DE:bd23 HL:6724 SP:dfe3
0e70  push hl AF:1400 BC:0014 DE:bd23 HL:6724 SP:dfe3
0e71  ld   hl,$c390 AF:1400 BC:0014 DE:bd23 HL:6724 SP:dfe1
0e74  ld   b,$04 AF:1400 BC:0014 DE:bd23 HL:c390 SP:dfe1
0e76  ld   c,$12 AF:1400 BC:0414 DE:bd23 HL:c390 SP:dfe1
0e78  call $0e3d AF:1400 BC:0412 DE:bd23 HL:c390 SP:dfe1
0e3d  push hl AF:1400 BC:0412 DE:bd23 HL:c390 SP:dfdf
0e3e  ld   a,$79 AF:1400 BC:0412 DE:bd23 HL:c390 SP:dfdd
0e40  ldi  (hl),a AF:7900 BC:0412 DE:bd23 HL:c390 SP:dfdd
0e41  inc  a AF:7900 BC:0412 DE:bd23 HL:c391 SP:dfdd
0e42  call $0e6a AF:7a00 BC:0412 DE:bd23 HL:c391 SP:dfdd
0e6a  ld   d,c AF:7a00 BC:0412 DE:bd23 HL:c391 SP:dfdb
0e6b  ldi  (hl),a AF:7a00 BC:0412 DE:1223 HL:c391 SP:dfdb
0e6c  dec  d AF:7a00 BC:0412 DE:1223 HL:c392 SP:dfdb
0e6d  jr   nz,$0e6b AF:7a40 BC:0412 DE:1123 HL:c392 SP:dfdb
0e6b  ldi  (hl),a AF:7a40 BC:0412 DE:1123 HL:c392 SP:dfdb
03ae  push af AF:7a40 BC:0412 DE:1123 HL:c392 SP:dfd9
03af  ld   a,($ffd0) AF:7a40 BC:0412 DE:1123 HL:c392 SP:dfd7
03b1  and  a,a AF:0040 BC:0412 DE:1123 HL:c392 SP:dfd7
03b2  jr   z,$03df AF:00a0 BC:0412 DE:1123 HL:c392 SP:dfd7
03df  pop  af AF:00a0 BC:0412 DE:1123 HL:c392 SP:dfd7
03e0  reti AF:7a40 BC:0412 DE:1123 HL:c392 SP:dfd9
0e6b  ldi  (hl),a AF:7a40 BC:0412 DE:1123 HL:c392 SP:dfdb
0e6c  dec  d AF:7a40 BC:0412 DE:1123 HL:c393 SP:dfdb
0e6d  jr   nz,$0e6b AF:7a40 BC:0412 DE:1023 HL:c393 SP:dfdb
0e6b  ldi  (hl),a AF:7a40 BC:0412 DE:1023 HL:c393 SP:dfdb
0e6c  dec  d AF:7a40 BC:0412 DE:1023 HL:c394 SP:dfdb
0e6d  jr   nz,$0e6b AF:7a60 BC:0412 DE:0f23 HL:c394 SP:dfdb
0e6b  ldi  (hl),a AF:7a60 BC:0412 DE:0f23 HL:c394 SP:dfdb
0e6c  dec  d AF:7a60 BC:0412 DE:0f23 HL:c395 SP:dfdb
0e6d  jr   nz,$0e6b AF:7a40 BC:0412 DE:0e23 HL:c395 SP:dfdb
0e6b  ldi  (hl),a AF:7a40 BC:0412 DE:0e23 HL:c395 SP:dfdb
0e6c  dec  d AF:7a40 BC:0412 DE:0e23 HL:c396 SP:dfdb
0e6d  jr   nz,$0e6b AF:7a40 BC:0412 DE:0d23 HL:c396 SP:dfdb
0e6b  ldi  (hl),a AF:7a40 BC:0412 DE:0d23 HL:c396 SP:dfdb
0e6c  dec  d AF:7a40 BC:0412 DE:0d23 HL:c397 SP:dfdb
0e6d  jr   nz,$0e6b AF:7a40 BC:0412 DE:0c23 HL:c397 SP:dfdb
0e6b  ldi  (hl),a AF:7a40 BC:0412 DE:0c23 HL:c397 SP:dfdb
0e6c  dec  d AF:7a40 BC:0412 DE:0c23 HL:c398 SP:dfdb
0e6d  jr   nz,$0e6b AF:7a40 BC:0412 DE:0b23 HL:c398 SP:dfdb
0e6b  ldi  (hl),a AF:7a40 BC:0412 DE:0b23 HL:c398 SP:dfdb
0e6c  dec  d AF:7a40 BC:0412 DE:0b23 HL:c399 SP:dfdb
0e6d  jr   nz,$0e6b AF:7a40 BC:0412 DE:0a23 HL:c399 SP:dfdb
0e6b  ldi  (hl),a AF:7a40 BC:0412 DE:0a23 HL:c399 SP:dfdb
0e6c  dec  d AF:7a40 BC:0412 DE:0a23 HL:c39a SP:dfdb
0e6d  jr   nz,$0e6b AF:7a40 BC:0412 DE:0923 HL:c39a SP:dfdb
0e6b  ldi  (hl),a AF:7a40 BC:0412 DE:0923 HL:c39a SP:dfdb
0e6c  dec  d AF:7a40 BC:0412 DE:0923 HL:c39b SP:dfdb
0e6d  jr   nz,$0e6b AF:7a40 BC:0412 DE:0823 HL:c39b SP:dfdb
0e6b  ldi  (hl),a AF:7a40 BC:0412 DE:0823 HL:c39b SP:dfdb
0e6c  dec  d AF:7a40 BC:0412 DE:0823 HL:c39c SP:dfdb
0e6d  jr   nz,$0e6b AF:7a40 BC:0412 DE:0723 HL:c39c SP:dfdb
0e6b  ldi  (hl),a AF:7a40 BC:0412 DE:0723 HL:c39c SP:dfdb
0e6c  dec  d AF:7a40 BC:0412 DE:0723 HL:c39d SP:dfdb
0e6d  jr   nz,$0e6b AF:7a40 BC:0412 DE:0623 HL:c39d SP:dfdb
0e6b  ldi  (hl),a AF:7a40 BC:0412 DE:0623 HL:c39d SP:dfdb
0e6c  dec  d AF:7a40 BC:0412 DE:0623 HL:c39e SP:dfdb
0e6d  jr   nz,$0e6b AF:7a40 BC:0412 DE:0523 HL:c39e SP:dfdb
0e6b  ldi  (hl),a AF:7a40 BC:0412 DE:0523 HL:c39e SP:dfdb
0e6c  dec  d AF:7a40 BC:0412 DE:0523 HL:c39f SP:dfdb
0e6d  jr   nz,$0e6b AF:7a40 BC:0412 DE:0423 HL:c39f SP:dfdb
0e6b  ldi  (hl),a AF:7a40 BC:0412 DE:0423 HL:c39f SP:dfdb
0e6c  dec  d AF:7a40 BC:0412 DE:0423 HL:c3a0 SP:dfdb
0e6d  jr   nz,$0e6b AF:7a40 BC:0412 DE:0323 HL:c3a0 SP:dfdb
0e6b  ldi  (hl),a AF:7a40 BC:0412 DE:0323 HL:c3a0 SP:dfdb
0e6c  dec  d AF:7a40 BC:0412 DE:0323 HL:c3a1 SP:dfdb
0e6d  jr   nz,$0e6b AF:7a40 BC:0412 DE:0223 HL:c3a1 SP:dfdb
03ae  push af AF:7a40 BC:0412 DE:0223 HL:c3a1 SP:dfd9
03af  ld   a,($ffd0) AF:7a40 BC:0412 DE:0223 HL:c3a1 SP:dfd7
03b1  and  a,a AF:0040 BC:0412 DE:0223 HL:c3a1 SP:dfd7
03b2  jr   z,$03df AF:00a0 BC:0412 DE:0223 HL:c3a1 SP:dfd7
03df  pop  af AF:00a0 BC:0412 DE:0223 HL:c3a1 SP:dfd7
03e0  reti AF:7a40 BC:0412 DE:0223 HL:c3a1 SP:dfd9
0e6d  jr   nz,$0e6b AF:7a40 BC:0412 DE:0223 HL:c3a1 SP:dfdb
0e6b  ldi  (hl),a AF:7a40 BC:0412 DE:0223 HL:c3a1 SP:dfdb
0e6c  dec  d AF:7a40 BC:0412 DE:0223 HL:c3a2 SP:dfdb
0e6d  jr   nz,$0e6b AF:7a40 BC:0412 DE:0123 HL:c3a2 SP:dfdb
0e6b  ldi  (hl),a AF:7a40 BC:0412 DE:0123 HL:c3a2 SP:dfdb
0e6c  dec  d AF:7a40 BC:0412 DE:0123 HL:c3a3 SP:dfdb
0e6d  jr   nz,$0e6b AF:7ac0 BC:0412 DE:0023 HL:c3a3 SP:dfdb
0e6f  ret AF:7ac0 BC:0412 DE:0023 HL:c3a3 SP:dfdb
0e45  inc  a AF:7ac0 BC:0412 DE:0023 HL:c3a3 SP:dfdd
0e46  ld   (hl),a AF:7b00 BC:0412 DE:0023 HL:c3a3 SP:dfdd
0e47  pop  hl AF:7b00 BC:0412 DE:0023 HL:c3a3 SP:dfdd
0e48  ld   de,$0014 AF:7b00 BC:0412 DE:0023 HL:c390 SP:dfdf
0e4b  add  hl,de AF:7b00 BC:0412 DE:0014 HL:c390 SP:dfdf
0e4c  push hl AF:7b00 BC:0412 DE:0014 HL:c3a4 SP:dfdf
0e4d  ld   a,$7c AF:7b00 BC:0412 DE:0014 HL:c3a4 SP:dfdd
0e4f  ldi  (hl),a AF:7c00 BC:0412 DE:0014 HL:c3a4 SP:dfdd
0e50  ld   a,$7f AF:7c00 BC:0412 DE:0014 HL:c3a5 SP:dfdd
0e52  call $0e6a AF:7f00 BC:0412 DE:0014 HL:c3a5 SP:dfdd
0e6a  ld   d,c AF:7f00 BC:0412 DE:0014 HL:c3a5 SP:dfdb
0e6b  ldi  (hl),a AF:7f00 BC:0412 DE:1214 HL:c3a5 SP:dfdb
0e6c  dec  d AF:7f00 BC:0412 DE:1214 HL:c3a6 SP:dfdb
0e6d  jr   nz,$0e6b AF:7f40 BC:0412 DE:1114 HL:c3a6 SP:dfdb
0e6b  ldi  (hl),a AF:7f40 BC:0412 DE:1114 HL:c3a6 SP:dfdb
0e6c  dec  d AF:7f40 BC:0412 DE:1114 HL:c3a7 SP:dfdb
0e6d  jr   nz,$0e6b AF:7f40 BC:0412 DE:1014 HL:c3a7 SP:dfdb
0e6b  ldi  (hl),a AF:7f40 BC:0412 DE:1014 HL:c3a7 SP:dfdb
0e6c  dec  d AF:7f40 BC:0412 DE:1014 HL:c3a8 SP:dfdb
0e6d  jr   nz,$0e6b AF:7f60 BC:0412 DE:0f14 HL:c3a8 SP:dfdb
0e6b  ldi  (hl),a AF:7f60 BC:0412 DE:0f14 HL:c3a8 SP:dfdb
0e6c  dec  d AF:7f60 BC:0412 DE:0f14 HL:c3a9 SP:dfdb
0e6d  jr   nz,$0e6b AF:7f40 BC:0412 DE:0e14 HL:c3a9 SP:dfdb
0e6b  ldi  (hl),a AF:7f40 BC:0412 DE:0e14 HL:c3a9 SP:dfdb
0e6c  dec  d AF:7f40 BC:0412 DE:0e14 HL:c3aa SP:dfdb
0e6d  jr   nz,$0e6b AF:7f40 BC:0412 DE:0d14 HL:c3aa SP:dfdb
0e6b  ldi  (hl),a AF:7f40 BC:0412 DE:0d14 HL:c3aa SP:dfdb
0e6c  dec  d AF:7f40 BC:0412 DE:0d14 HL:c3ab SP:dfdb
0e6d  jr   nz,$0e6b AF:7f40 BC:0412 DE:0c14 HL:c3ab SP:dfdb
0e6b  ldi  (hl),a AF:7f40 BC:0412 DE:0c14 HL:c3ab SP:dfdb
0e6c  dec  d AF:7f40 BC:0412 DE:0c14 HL:c3ac SP:dfdb
0e6d  jr   nz,$0e6b AF:7f40 BC:0412 DE:0b14 HL:c3ac SP:dfdb
0e6b  ldi  (hl),a AF:7f40 BC:0412 DE:0b14 HL:c3ac SP:dfdb
03ae  push af AF:7f40 BC:0412 DE:0b14 HL:c3ac SP:dfd9
03af  ld   a,($ffd0) AF:7f40 BC:0412 DE:0b14 HL:c3ac SP:dfd7
03b1  and  a,a AF:0040 BC:0412 DE:0b14 HL:c3ac SP:dfd7
03b2  jr   z,$03df AF:00a0 BC:0412 DE:0b14 HL:c3ac SP:dfd7
03df  pop  af AF:00a0 BC:0412 DE:0b14 HL:c3ac SP:dfd7
03e0  reti AF:7f40 BC:0412 DE:0b14 HL:c3ac SP:dfd9
0e6b  ldi  (hl),a AF:7f40 BC:0412 DE:0b14 HL:c3ac SP:dfdb
0e6c  dec  d AF:7f40 BC:0412 DE:0b14 HL:c3ad SP:dfdb
0e6d  jr   nz,$0e6b AF:7f40 BC:0412 DE:0a14 HL:c3ad SP:dfdb
0e6b  ldi  (hl),a AF:7f40 BC:0412 DE:0a14 HL:c3ad SP:dfdb
0e6c  dec  d AF:7f40 BC:0412 DE:0a14 HL:c3ae SP:dfdb
0e6d  jr   nz,$0e6b AF:7f40 BC:0412 DE:0914 HL:c3ae SP:dfdb
0e6b  ldi  (hl),a AF:7f40 BC:0412 DE:0914 HL:c3ae SP:dfdb
0e6c  dec  d AF:7f40 BC:0412 DE:0914 HL:c3af SP:dfdb
0e6d  jr   nz,$0e6b AF:7f40 BC:0412 DE:0814 HL:c3af SP:dfdb
0e6b  ldi  (hl),a AF:7f40 BC:0412 DE:0814 HL:c3af SP:dfdb
0e6c  dec  d AF:7f40 BC:0412 DE:0814 HL:c3b0 SP:dfdb
0e6d  jr   nz,$0e6b AF:7f40 BC:0412 DE:0714 HL:c3b0 SP:dfdb
0e6b  ldi  (hl),a AF:7f40 BC:0412 DE:0714 HL:c3b0 SP:dfdb
0e6c  dec  d AF:7f40 BC:0412 DE:0714 HL:c3b1 SP:dfdb
0e6d  jr   nz,$0e6b AF:7f40 BC:0412 DE:0614 HL:c3b1 SP:dfdb
0e6b  ldi  (hl),a AF:7f40 BC:0412 DE:0614 HL:c3b1 SP:dfdb
0e6c  dec  d AF:7f40 BC:0412 DE:0614 HL:c3b2 SP:dfdb
0e6d  jr   nz,$0e6b AF:7f40 BC:0412 DE:0514 HL:c3b2 SP:dfdb
0e6b  ldi  (hl),a AF:7f40 BC:0412 DE:0514 HL:c3b2 SP:dfdb
0e6c  dec  d AF:7f40 BC:0412 DE:0514 HL:c3b3 SP:dfdb
0e6d  jr   nz,$0e6b AF:7f40 BC:0412 DE:0414 HL:c3b3 SP:dfdb
0e6b  ldi  (hl),a AF:7f40 BC:0412 DE:0414 HL:c3b3 SP:dfdb
0e6c  dec  d AF:7f40 BC:0412 DE:0414 HL:c3b4 SP:dfdb
0e6d  jr   nz,$0e6b AF:7f40 BC:0412 DE:0314 HL:c3b4 SP:dfdb
0e6b  ldi  (hl),a AF:7f40 BC:0412 DE:0314 HL:c3b4 SP:dfdb
0e6c  dec  d AF:7f40 BC:0412 DE:0314 HL:c3b5 SP:dfdb
0e6d  jr   nz,$0e6b AF:7f40 BC:0412 DE:0214 HL:c3b5 SP:dfdb
0e6b  ldi  (hl),a AF:7f40 BC:0412 DE:0214 HL:c3b5 SP:dfdb
0e6c  dec  d AF:7f40 BC:0412 DE:0214 HL:c3b6 SP:dfdb
0e6d  jr   nz,$0e6b AF:7f40 BC:0412 DE:0114 HL:c3b6 SP:dfdb
0e6b  ldi  (hl),a AF:7f40 BC:0412 DE:0114 HL:c3b6 SP:dfdb
0e6c  dec  d AF:7f40 BC:0412 DE:0114 HL:c3b7 SP:dfdb
0e6d  jr   nz,$0e6b AF:7fc0 BC:0412 DE:0014 HL:c3b7 SP:dfdb
0e6f  ret AF:7fc0 BC:0412 DE:0014 HL:c3b7 SP:dfdb
0e55  ld   (hl),$7c AF:7fc0 BC:0412 DE:0014 HL:c3b7 SP:dfdd
0e57  pop  hl AF:7fc0 BC:0412 DE:0014 HL:c3b7 SP:dfdd
0e58  ld   de,$0014 AF:7fc0 BC:0412 DE:0014 HL:c3a4 SP:dfdf
0e5b  add  hl,de AF:7fc0 BC:0412 DE:0014 HL:c3a4 SP:dfdf
0e5c  dec  b AF:7f80 BC:0412 DE:0014 HL:c3b8 SP:dfdf
0e5d  jr   nz,$0e4c AF:7f40 BC:0312 DE:0014 HL:c3b8 SP:dfdf
0e4c  push hl AF:7f40 BC:0312 DE:0014 HL:c3b8 SP:dfdf
0e4d  ld   a,$7c AF:7f40 BC:0312 DE:0014 HL:c3b8 SP:dfdd
03ae  push af AF:7f40 BC:0312 DE:0014 HL:c3b8 SP:dfdb
03af  ld   a,($ffd0) AF:7f40 BC:0312 DE:0014 HL:c3b8 SP:dfd9
03b1  and  a,a AF:0040 BC:0312 DE:0014 HL:c3b8 SP:dfd9
03b2  jr   z,$03df AF:00a0 BC:0312 DE:0014 HL:c3b8 SP:dfd9
03df  pop  af AF:00a0 BC:0312 DE:0014 HL:c3b8 SP:dfd9
03e0  reti AF:7f40 BC:0312 DE:0014 HL:c3b8 SP:dfdb
0e4d  ld   a,$7c AF:7f40 BC:0312 DE:0014 HL:c3b8 SP:dfdd
0e4f  ldi  (hl),a AF:7c40 BC:0312 DE:0014 HL:c3b8 SP:dfdd
0e50  ld   a,$7f AF:7c40 BC:0312 DE:0014 HL:c3b9 SP:dfdd
0e52  call $0e6a AF:7f40 BC:0312 DE:0014 HL:c3b9 SP:dfdd
0e6a  ld   d,c AF:7f40 BC:0312 DE:0014 HL:c3b9 SP:dfdb
0e6b  ldi  (hl),a AF:7f40 BC:0312 DE:1214 HL:c3b9 SP:dfdb
0e6c  dec  d AF:7f40 BC:0312 DE:1214 HL:c3ba SP:dfdb
0e6d  jr   nz,$0e6b AF:7f40 BC:0312 DE:1114 HL:c3ba SP:dfdb
0e6b  ldi  (hl),a AF:7f40 BC:0312 DE:1114 HL:c3ba SP:dfdb
0e6c  dec  d AF:7f40 BC:0312 DE:1114 HL:c3bb SP:dfdb
0e6d  jr   nz,$0e6b AF:7f40 BC:0312 DE:1014 HL:c3bb SP:dfdb
0e6b  ldi  (hl),a AF:7f40 BC:0312 DE:1014 HL:c3bb SP:dfdb
0e6c  dec  d AF:7f40 BC:0312 DE:1014 HL:c3bc SP:dfdb
0e6d  jr   nz,$0e6b AF:7f60 BC:0312 DE:0f14 HL:c3bc SP:dfdb
0e6b  ldi  (hl),a AF:7f60 BC:0312 DE:0f14 HL:c3bc SP:dfdb
0e6c  dec  d AF:7f60 BC:0312 DE:0f14 HL:c3bd SP:dfdb
0e6d  jr   nz,$0e6b AF:7f40 BC:0312 DE:0e14 HL:c3bd SP:dfdb
0e6b  ldi  (hl),a AF:7f40 BC:0312 DE:0e14 HL:c3bd SP:dfdb
0e6c  dec  d AF:7f40 BC:0312 DE:0e14 HL:c3be SP:dfdb
0e6d  jr   nz,$0e6b AF:7f40 BC:0312 DE:0d14 HL:c3be SP:dfdb
0e6b  ldi  (hl),a AF:7f40 BC:0312 DE:0d14 HL:c3be SP:dfdb
0e6c  dec  d AF:7f40 BC:0312 DE:0d14 HL:c3bf SP:dfdb
0e6d  jr   nz,$0e6b AF:7f40 BC:0312 DE:0c14 HL:c3bf SP:dfdb
0e6b  ldi  (hl),a AF:7f40 BC:0312 DE:0c14 HL:c3bf SP:dfdb
0e6c  dec  d AF:7f40 BC:0312 DE:0c14 HL:c3c0 SP:dfdb
0e6d  jr   nz,$0e6b AF:7f40 BC:0312 DE:0b14 HL:c3c0 SP:dfdb
0e6b  ldi  (hl),a AF:7f40 BC:0312 DE:0b14 HL:c3c0 SP:dfdb
0e6c  dec  d AF:7f40 BC:0312 DE:0b14 HL:c3c1 SP:dfdb
0e6d  jr   nz,$0e6b AF:7f40 BC:0312 DE:0a14 HL:c3c1 SP:dfdb
0e6b  ldi  (hl),a AF:7f40 BC:0312 DE:0a14 HL:c3c1 SP:dfdb
0e6c  dec  d AF:7f40 BC:0312 DE:0a14 HL:c3c2 SP:dfdb
0e6d  jr   nz,$0e6b AF:7f40 BC:0312 DE:0914 HL:c3c2 SP:dfdb
0e6b  ldi  (hl),a AF:7f40 BC:0312 DE:0914 HL:c3c2 SP:dfdb
0e6c  dec  d AF:7f40 BC:0312 DE:0914 HL:c3c3 SP:dfdb
0e6d  jr   nz,$0e6b AF:7f40 BC:0312 DE:0814 HL:c3c3 SP:dfdb
0e6b  ldi  (hl),a AF:7f40 BC:0312 DE:0814 HL:c3c3 SP:dfdb
0e6c  dec  d AF:7f40 BC:0312 DE:0814 HL:c3c4 SP:dfdb
0e6d  jr   nz,$0e6b AF:7f40 BC:0312 DE:0714 HL:c3c4 SP:dfdb
0e6b  ldi  (hl),a AF:7f40 BC:0312 DE:0714 HL:c3c4 SP:dfdb
0e6c  dec  d AF:7f40 BC:0312 DE:0714 HL:c3c5 SP:dfdb
0e6d  jr   nz,$0e6b AF:7f40 BC:0312 DE:0614 HL:c3c5 SP:dfdb
0e6b  ldi  (hl),a AF:7f40 BC:0312 DE:0614 HL:c3c5 SP:dfdb
03ae  push af AF:7f40 BC:0312 DE:0614 HL:c3c5 SP:dfd9
03af  ld   a,($ffd0) AF:7f40 BC:0312 DE:0614 HL:c3c5 SP:dfd7
03b1  and  a,a AF:0040 BC:0312 DE:0614 HL:c3c5 SP:dfd7
03b2  jr   z,$03df AF:00a0 BC:0312 DE:0614 HL:c3c5 SP:dfd7
03df  pop  af AF:00a0 BC:0312 DE:0614 HL:c3c5 SP:dfd7
03e0  reti AF:7f40 BC:0312 DE:0614 HL:c3c5 SP:dfd9
0e6b  ldi  (hl),a AF:7f40 BC:0312 DE:0614 HL:c3c5 SP:dfdb
0e6c  dec  d AF:7f40 BC:0312 DE:0614 HL:c3c6 SP:dfdb
0e6d  jr   nz,$0e6b AF:7f40 BC:0312 DE:0514 HL:c3c6 SP:dfdb
0e6b  ldi  (hl),a AF:7f40 BC:0312 DE:0514 HL:c3c6 SP:dfdb
0e6c  dec  d AF:7f40 BC:0312 DE:0514 HL:c3c7 SP:dfdb
0e6d  jr   nz,$0e6b AF:7f40 BC:0312 DE:0414 HL:c3c7 SP:dfdb
0e6b  ldi  (hl),a AF:7f40 BC:0312 DE:0414 HL:c3c7 SP:dfdb
0e6c  dec  d AF:7f40 BC:0312 DE:0414 HL:c3c8 SP:dfdb
0e6d  jr   nz,$0e6b AF:7f40 BC:0312 DE:0314 HL:c3c8 SP:dfdb
0e6b  ldi  (hl),a AF:7f40 BC:0312 DE:0314 HL:c3c8 SP:dfdb
0e6c  dec  d AF:7f40 BC:0312 DE:0314 HL:c3c9 SP:dfdb
0e6d  jr   nz,$0e6b AF:7f40 BC:0312 DE:0214 HL:c3c9 SP:dfdb
0e6b  ldi  (hl),a AF:7f40 BC:0312 DE:0214 HL:c3c9 SP:dfdb
0e6c  dec  d AF:7f40 BC:0312 DE:0214 HL:c3ca SP:dfdb
0e6d  jr   nz,$0e6b AF:7f40 BC:0312 DE:0114 HL:c3ca SP:dfdb
0e6b  ldi  (hl),a AF:7f40 BC:0312 DE:0114 HL:c3ca SP:dfdb
0e6c  dec  d AF:7f40 BC:0312 DE:0114 HL:c3cb SP:dfdb
0e6d  jr   nz,$0e6b AF:7fc0 BC:0312 DE:0014 HL:c3cb SP:dfdb
0e6f  ret AF:7fc0 BC:0312 DE:0014 HL:c3cb SP:dfdb
0e55  ld   (hl),$7c AF:7fc0 BC:0312 DE:0014 HL:c3cb SP:dfdd
0e57  pop  hl AF:7fc0 BC:0312 DE:0014 HL:c3cb SP:dfdd
0e58  ld   de,$0014 AF:7fc0 BC:0312 DE:0014 HL:c3b8 SP:dfdf
0e5b  add  hl,de AF:7fc0 BC:0312 DE:0014 HL:c3b8 SP:dfdf
0e5c  dec  b AF:7f80 BC:0312 DE:0014 HL:c3cc SP:dfdf
0e5d  jr   nz,$0e4c AF:7f40 BC:0212 DE:0014 HL:c3cc SP:dfdf
0e4c  push hl AF:7f40 BC:0212 DE:0014 HL:c3cc SP:dfdf
0e4d  ld   a,$7c AF:7f40 BC:0212 DE:0014 HL:c3cc SP:dfdd
0e4f  ldi  (hl),a AF:7c40 BC:0212 DE:0014 HL:c3cc SP:dfdd
0e50  ld   a,$7f AF:7c40 BC:0212 DE:0014 HL:c3cd SP:dfdd
0e52  call $0e6a AF:7f40 BC:0212 DE:0014 HL:c3cd SP:dfdd
0e6a  ld   d,c AF:7f40 BC:0212 DE:0014 HL:c3cd SP:dfdb
0e6b  ldi  (hl),a AF:7f40 BC:0212 DE:1214 HL:c3cd SP:dfdb
0e6c  dec  d AF:7f40 BC:0212 DE:1214 HL:c3ce SP:dfdb
0e6d  jr   nz,$0e6b AF:7f40 BC:0212 DE:1114 HL:c3ce SP:dfdb
0e6b  ldi  (hl),a AF:7f40 BC:0212 DE:1114 HL:c3ce SP:dfdb
0e6c  dec  d AF:7f40 BC:0212 DE:1114 HL:c3cf SP:dfdb
0e6d  jr   nz,$0e6b AF:7f40 BC:0212 DE:1014 HL:c3cf SP:dfdb
0e6b  ldi  (hl),a AF:7f40 BC:0212 DE:1014 HL:c3cf SP:dfdb
0e6c  dec  d AF:7f40 BC:0212 DE:1014 HL:c3d0 SP:dfdb
0e6d  jr   nz,$0e6b AF:7f60 BC:0212 DE:0f14 HL:c3d0 SP:dfdb
0e6b  ldi  (hl),a AF:7f60 BC:0212 DE:0f14 HL:c3d0 SP:dfdb
03ae  push af AF:7f60 BC:0212 DE:0f14 HL:c3d0 SP:dfd9
03af  ld   a,($ffd0) AF:7f60 BC:0212 DE:0f14 HL:c3d0 SP:dfd7
03b1  and  a,a AF:0060 BC:0212 DE:0f14 HL:c3d0 SP:dfd7
03b2  jr   z,$03df AF:00a0 BC:0212 DE:0f14 HL:c3d0 SP:dfd7
03df  pop  af AF:00a0 BC:0212 DE:0f14 HL:c3d0 SP:dfd7
03e0  reti AF:7f60 BC:0212 DE:0f14 HL:c3d0 SP:dfd9
0e6b  ldi  (hl),a AF:7f60 BC:0212 DE:0f14 HL:c3d0 SP:dfdb
0e6c  dec  d AF:7f60 BC:0212 DE:0f14 HL:c3d1 SP:dfdb
0e6d  jr   nz,$0e6b AF:7f40 BC:0212 DE:0e14 HL:c3d1 SP:dfdb
0e6b  ldi  (hl),a AF:7f40 BC:0212 DE:0e14 HL:c3d1 SP:dfdb
0e6c  dec  d AF:7f40 BC:0212 DE:0e14 HL:c3d2 SP:dfdb
0e6d  jr   nz,$0e6b AF:7f40 BC:0212 DE:0d14 HL:c3d2 SP:dfdb
0e6b  ldi  (hl),a AF:7f40 BC:0212 DE:0d14 HL:c3d2 SP:dfdb
0e6c  dec  d AF:7f40 BC:0212 DE:0d14 HL:c3d3 SP:dfdb
0e6d  jr   nz,$0e6b AF:7f40 BC:0212 DE:0c14 HL:c3d3 SP:dfdb
0e6b  ldi  (hl),a AF:7f40 BC:0212 DE:0c14 HL:c3d3 SP:dfdb
0e6c  dec  d AF:7f40 BC:0212 DE:0c14 HL:c3d4 SP:dfdb
0e6d  jr   nz,$0e6b AF:7f40 BC:0212 DE:0b14 HL:c3d4 SP:dfdb
0e6b  ldi  (hl),a AF:7f40 BC:0212 DE:0b14 HL:c3d4 SP:dfdb
0e6c  dec  d AF:7f40 BC:0212 DE:0b14 HL:c3d5 SP:dfdb
0e6d  jr   nz,$0e6b AF:7f40 BC:0212 DE:0a14 HL:c3d5 SP:dfdb
0e6b  ldi  (hl),a AF:7f40 BC:0212 DE:0a14 HL:c3d5 SP:dfdb
0e6c  dec  d AF:7f40 BC:0212 DE:0a14 HL:c3d6 SP:dfdb
0e6d  jr   nz,$0e6b AF:7f40 BC:0212 DE:0914 HL:c3d6 SP:dfdb
0e6b  ldi  (hl),a AF:7f40 BC:0212 DE:0914 HL:c3d6 SP:dfdb
0e6c  dec  d AF:7f40 BC:0212 DE:0914 HL:c3d7 SP:dfdb
0e6d  jr   nz,$0e6b AF:7f40 BC:0212 DE:0814 HL:c3d7 SP:dfdb
0e6b  ldi  (hl),a AF:7f40 BC:0212 DE:0814 HL:c3d7 SP:dfdb
0e6c  dec  d AF:7f40 BC:0212 DE:0814 HL:c3d8 SP:dfdb
0e6d  jr   nz,$0e6b AF:7f40 BC:0212 DE:0714 HL:c3d8 SP:dfdb
0e6b  ldi  (hl),a AF:7f40 BC:0212 DE:0714 HL:c3d8 SP:dfdb
0e6c  dec  d AF:7f40 BC:0212 DE:0714 HL:c3d9 SP:dfdb
0e6d  jr   nz,$0e6b AF:7f40 BC:0212 DE:0614 HL:c3d9 SP:dfdb
0e6b  ldi  (hl),a AF:7f40 BC:0212 DE:0614 HL:c3d9 SP:dfdb
0e6c  dec  d AF:7f40 BC:0212 DE:0614 HL:c3da SP:dfdb
0e6d  jr   nz,$0e6b AF:7f40 BC:0212 DE:0514 HL:c3da SP:dfdb
0e6b  ldi  (hl),a AF:7f40 BC:0212 DE:0514 HL:c3da SP:dfdb
0e6c  dec  d AF:7f40 BC:0212 DE:0514 HL:c3db SP:dfdb
0e6d  jr   nz,$0e6b AF:7f40 BC:0212 DE:0414 HL:c3db SP:dfdb
0e6b  ldi  (hl),a AF:7f40 BC:0212 DE:0414 HL:c3db SP:dfdb
0e6c  dec  d AF:7f40 BC:0212 DE:0414 HL:c3dc SP:dfdb
0e6d  jr   nz,$0e6b AF:7f40 BC:0212 DE:0314 HL:c3dc SP:dfdb
0e6b  ldi  (hl),a AF:7f40 BC:0212 DE:0314 HL:c3dc SP:dfdb
0e6c  dec  d AF:7f40 BC:0212 DE:0314 HL:c3dd SP:dfdb
0e6d  jr   nz,$0e6b AF:7f40 BC:0212 DE:0214 HL:c3dd SP:dfdb
0e6b  ldi  (hl),a AF:7f40 BC:0212 DE:0214 HL:c3dd SP:dfdb
0e6c  dec  d AF:7f40 BC:0212 DE:0214 HL:c3de SP:dfdb
0e6d  jr   nz,$0e6b AF:7f40 BC:0212 DE:0114 HL:c3de SP:dfdb
0e6b  ldi  (hl),a AF:7f40 BC:0212 DE:0114 HL:c3de SP:dfdb
0e6c  dec  d AF:7f40 BC:0212 DE:0114 HL:c3df SP:dfdb
03ae  push af AF:7f40 BC:0212 DE:0114 HL:c3df SP:dfd9
03af  ld   a,($ffd0) AF:7f40 BC:0212 DE:0114 HL:c3df SP:dfd7
03b1  and  a,a AF:0040 BC:0212 DE:0114 HL:c3df SP:dfd7
03b2  jr   z,$03df AF:00a0 BC:0212 DE:0114 HL:c3df SP:dfd7
03df  pop  af AF:00a0 BC:0212 DE:0114 HL:c3df SP:dfd7
03e0  reti AF:7f40 BC:0212 DE:0114 HL:c3df SP:dfd9
0e6c  dec  d AF:7f40 BC:0212 DE:0114 HL:c3df SP:dfdb
0e6d  jr   nz,$0e6b AF:7fc0 BC:0212 DE:0014 HL:c3df SP:dfdb
0e6f  ret AF:7fc0 BC:0212 DE:0014 HL:c3df SP:dfdb
0e55  ld   (hl),$7c AF:7fc0 BC:0212 DE:0014 HL:c3df SP:dfdd
0e57  pop  hl AF:7fc0 BC:0212 DE:0014 HL:c3df SP:dfdd
0e58  ld   de,$0014 AF:7fc0 BC:0212 DE:0014 HL:c3cc SP:dfdf
0e5b  add  hl,de AF:7fc0 BC:0212 DE:0014 HL:c3cc SP:dfdf
0e5c  dec  b AF:7f80 BC:0212 DE:0014 HL:c3e0 SP:dfdf
0e5d  jr   nz,$0e4c AF:7f40 BC:0112 DE:0014 HL:c3e0 SP:dfdf
0e4c  push hl AF:7f40 BC:0112 DE:0014 HL:c3e0 SP:dfdf
0e4d  ld   a,$7c AF:7f40 BC:0112 DE:0014 HL:c3e0 SP:dfdd
0e4f  ldi  (hl),a AF:7c40 BC:0112 DE:0014 HL:c3e0 SP:dfdd
0e50  ld   a,$7f AF:7c40 BC:0112 DE:0014 HL:c3e1 SP:dfdd
0e52  call $0e6a AF:7f40 BC:0112 DE:0014 HL:c3e1 SP:dfdd
0e6a  ld   d,c AF:7f40 BC:0112 DE:0014 HL:c3e1 SP:dfdb
0e6b  ldi  (hl),a AF:7f40 BC:0112 DE:1214 HL:c3e1 SP:dfdb
0e6c  dec  d AF:7f40 BC:0112 DE:1214 HL:c3e2 SP:dfdb
0e6d  jr   nz,$0e6b AF:7f40 BC:0112 DE:1114 HL:c3e2 SP:dfdb
0e6b  ldi  (hl),a AF:7f40 BC:0112 DE:1114 HL:c3e2 SP:dfdb
0e6c  dec  d AF:7f40 BC:0112 DE:1114 HL:c3e3 SP:dfdb
0e6d  jr   nz,$0e6b AF:7f40 BC:0112 DE:1014 HL:c3e3 SP:dfdb
0e6b  ldi  (hl),a AF:7f40 BC:0112 DE:1014 HL:c3e3 SP:dfdb
0e6c  dec  d AF:7f40 BC:0112 DE:1014 HL:c3e4 SP:dfdb
0e6d  jr   nz,$0e6b AF:7f60 BC:0112 DE:0f14 HL:c3e4 SP:dfdb
0e6b  ldi  (hl),a AF:7f60 BC:0112 DE:0f14 HL:c3e4 SP:dfdb
0e6c  dec  d AF:7f60 BC:0112 DE:0f14 HL:c3e5 SP:dfdb
0e6d  jr   nz,$0e6b AF:7f40 BC:0112 DE:0e14 HL:c3e5 SP:dfdb
0e6b  ldi  (hl),a AF:7f40 BC:0112 DE:0e14 HL:c3e5 SP:dfdb
0e6c  dec  d AF:7f40 BC:0112 DE:0e14 HL:c3e6 SP:dfdb
0e6d  jr   nz,$0e6b AF:7f40 BC:0112 DE:0d14 HL:c3e6 SP:dfdb
0e6b  ldi  (hl),a AF:7f40 BC:0112 DE:0d14 HL:c3e6 SP:dfdb
0e6c  dec  d AF:7f40 BC:0112 DE:0d14 HL:c3e7 SP:dfdb
0e6d  jr   nz,$0e6b AF:7f40 BC:0112 DE:0c14 HL:c3e7 SP:dfdb
0e6b  ldi  (hl),a AF:7f40 BC:0112 DE:0c14 HL:c3e7 SP:dfdb
0e6c  dec  d AF:7f40 BC:0112 DE:0c14 HL:c3e8 SP:dfdb
0e6d  jr   nz,$0e6b AF:7f40 BC:0112 DE:0b14 HL:c3e8 SP:dfdb
0e6b  ldi  (hl),a AF:7f40 BC:0112 DE:0b14 HL:c3e8 SP:dfdb
0e6c  dec  d AF:7f40 BC:0112 DE:0b14 HL:c3e9 SP:dfdb
0e6d  jr   nz,$0e6b AF:7f40 BC:0112 DE:0a14 HL:c3e9 SP:dfdb
0e6b  ldi  (hl),a AF:7f40 BC:0112 DE:0a14 HL:c3e9 SP:dfdb
03ae  push af AF:7f40 BC:0112 DE:0a14 HL:c3e9 SP:dfd9
03af  ld   a,($ffd0) AF:7f40 BC:0112 DE:0a14 HL:c3e9 SP:dfd7
03b1  and  a,a AF:0040 BC:0112 DE:0a14 HL:c3e9 SP:dfd7
03b2  jr   z,$03df AF:00a0 BC:0112 DE:0a14 HL:c3e9 SP:dfd7
03df  pop  af AF:00a0 BC:0112 DE:0a14 HL:c3e9 SP:dfd7
03e0  reti AF:7f40 BC:0112 DE:0a14 HL:c3e9 SP:dfd9
0e6b  ldi  (hl),a AF:7f40 BC:0112 DE:0a14 HL:c3e9 SP:dfdb
0e6c  dec  d AF:7f40 BC:0112 DE:0a14 HL:c3ea SP:dfdb
0e6d  jr   nz,$0e6b AF:7f40 BC:0112 DE:0914 HL:c3ea SP:dfdb
0e6b  ldi  (hl),a AF:7f40 BC:0112 DE:0914 HL:c3ea SP:dfdb
0e6c  dec  d AF:7f40 BC:0112 DE:0914 HL:c3eb SP:dfdb
0e6d  jr   nz,$0e6b AF:7f40 BC:0112 DE:0814 HL:c3eb SP:dfdb
0e6b  ldi  (hl),a AF:7f40 BC:0112 DE:0814 HL:c3eb SP:dfdb
0e6c  dec  d AF:7f40 BC:0112 DE:0814 HL:c3ec SP:dfdb
0e6d  jr   nz,$0e6b AF:7f40 BC:0112 DE:0714 HL:c3ec SP:dfdb
0e6b  ldi  (hl),a AF:7f40 BC:0112 DE:0714 HL:c3ec SP:dfdb
0e6c  dec  d AF:7f40 BC:0112 DE:0714 HL:c3ed SP:dfdb
0e6d  jr   nz,$0e6b AF:7f40 BC:0112 DE:0614 HL:c3ed SP:dfdb
0e6b  ldi  (hl),a AF:7f40 BC:0112 DE:0614 HL:c3ed SP:dfdb
0e6c  dec  d AF:7f40 BC:0112 DE:0614 HL:c3ee SP:dfdb
0e6d  jr   nz,$0e6b AF:7f40 BC:0112 DE:0514 HL:c3ee SP:dfdb
0e6b  ldi  (hl),a AF:7f40 BC:0112 DE:0514 HL:c3ee SP:dfdb
0e6c  dec  d AF:7f40 BC:0112 DE:0514 HL:c3ef SP:dfdb
0e6d  jr   nz,$0e6b AF:7f40 BC:0112 DE:0414 HL:c3ef SP:dfdb
0e6b  ldi  (hl),a AF:7f40 BC:0112 DE:0414 HL:c3ef SP:dfdb
0e6c  dec  d AF:7f40 BC:0112 DE:0414 HL:c3f0 SP:dfdb
0e6d  jr   nz,$0e6b AF:7f40 BC:0112 DE:0314 HL:c3f0 SP:dfdb
0e6b  ldi  (hl),a AF:7f40 BC:0112 DE:0314 HL:c3f0 SP:dfdb
0e6c  dec  d AF:7f40 BC:0112 DE:0314 HL:c3f1 SP:dfdb
0e6d  jr   nz,$0e6b AF:7f40 BC:0112 DE:0214 HL:c3f1 SP:dfdb
0e6b  ldi  (hl),a AF:7f40 BC:0112 DE:0214 HL:c3f1 SP:dfdb
0e6c  dec  d AF:7f40 BC:0112 DE:0214 HL:c3f2 SP:dfdb
0e6d  jr   nz,$0e6b AF:7f40 BC:0112 DE:0114 HL:c3f2 SP:dfdb
0e6b  ldi  (hl),a AF:7f40 BC:0112 DE:0114 HL:c3f2 SP:dfdb
0e6c  dec  d AF:7f40 BC:0112 DE:0114 HL:c3f3 SP:dfdb
0e6d  jr   nz,$0e6b AF:7fc0 BC:0112 DE:0014 HL:c3f3 SP:dfdb
0e6f  ret AF:7fc0 BC:0112 DE:0014 HL:c3f3 SP:dfdb
0e55  ld   (hl),$7c AF:7fc0 BC:0112 DE:0014 HL:c3f3 SP:dfdd
0e57  pop  hl AF:7fc0 BC:0112 DE:0014 HL:c3f3 SP:dfdd
0e58  ld   de,$0014 AF:7fc0 BC:0112 DE:0014 HL:c3e0 SP:dfdf
0e5b  add  hl,de AF:7fc0 BC:0112 DE:0014 HL:c3e0 SP:dfdf
0e5c  dec  b AF:7f80 BC:0112 DE:0014 HL:c3f4 SP:dfdf
0e5d  jr   nz,$0e4c AF:7fc0 BC:0012 DE:0014 HL:c3f4 SP:dfdf
0e5f  ld   a,$7d AF:7fc0 BC:0012 DE:0014 HL:c3f4 SP:dfdf
0e61  ldi  (hl),a AF:7dc0 BC:0012 DE:0014 HL:c3f4 SP:dfdf
0e62  ld   a,$7a AF:7dc0 BC:0012 DE:0014 HL:c3f5 SP:dfdf
0e64  call $0e6a AF:7ac0 BC:0012 DE:0014 HL:c3f5 SP:dfdf
0e6a  ld   d,c AF:7ac0 BC:0012 DE:0014 HL:c3f5 SP:dfdd
03ae  push af AF:7ac0 BC:0012 DE:0014 HL:c3f5 SP:dfdb
03af  ld   a,($ffd0) AF:7ac0 BC:0012 DE:0014 HL:c3f5 SP:dfd9
03b1  and  a,a AF:00c0 BC:0012 DE:0014 HL:c3f5 SP:dfd9
03b2  jr   z,$03df AF:00a0 BC:0012 DE:0014 HL:c3f5 SP:dfd9
03df  pop  af AF:00a0 BC:0012 DE:0014 HL:c3f5 SP:dfd9
03e0  reti AF:7ac0 BC:0012 DE:0014 HL:c3f5 SP:dfdb
0e6a  ld   d,c AF:7ac0 BC:0012 DE:0014 HL:c3f5 SP:dfdd
0e6b  ldi  (hl),a AF:7ac0 BC:0012 DE:1214 HL:c3f5 SP:dfdd
0e6c  dec  d AF:7ac0 BC:0012 DE:1214 HL:c3f6 SP:dfdd
0e6d  jr   nz,$0e6b AF:7a40 BC:0012 DE:1114 HL:c3f6 SP:dfdd
0e6b  ldi  (hl),a AF:7a40 BC:0012 DE:1114 HL:c3f6 SP:dfdd
0e6c  dec  d AF:7a40 BC:0012 DE:1114 HL:c3f7 SP:dfdd
0e6d  jr   nz,$0e6b AF:7a40 BC:0012 DE:1014 HL:c3f7 SP:dfdd
0e6b  ldi  (hl),a AF:7a40 BC:0012 DE:1014 HL:c3f7 SP:dfdd
0e6c  dec  d AF:7a40 BC:0012 DE:1014 HL:c3f8 SP:dfdd
0e6d  jr   nz,$0e6b AF:7a60 BC:0012 DE:0f14 HL:c3f8 SP:dfdd
0e6b  ldi  (hl),a AF:7a60 BC:0012 DE:0f14 HL:c3f8 SP:dfdd
0e6c  dec  d AF:7a60 BC:0012 DE:0f14 HL:c3f9 SP:dfdd
0e6d  jr   nz,$0e6b AF:7a40 BC:0012 DE:0e14 HL:c3f9 SP:dfdd
0e6b  ldi  (hl),a AF:7a40 BC:0012 DE:0e14 HL:c3f9 SP:dfdd
0e6c  dec  d AF:7a40 BC:0012 DE:0e14 HL:c3fa SP:dfdd
0e6d  jr   nz,$0e6b AF:7a40 BC:0012 DE:0d14 HL:c3fa SP:dfdd
0e6b  ldi  (hl),a AF:7a40 BC:0012 DE:0d14 HL:c3fa SP:dfdd
0e6c  dec  d AF:7a40 BC:0012 DE:0d14 HL:c3fb SP:dfdd
0e6d  jr   nz,$0e6b AF:7a40 BC:0012 DE:0c14 HL:c3fb SP:dfdd
0e6b  ldi  (hl),a AF:7a40 BC:0012 DE:0c14 HL:c3fb SP:dfdd
0e6c  dec  d AF:7a40 BC:0012 DE:0c14 HL:c3fc SP:dfdd
0e6d  jr   nz,$0e6b AF:7a40 BC:0012 DE:0b14 HL:c3fc SP:dfdd
0e6b  ldi  (hl),a AF:7a40 BC:0012 DE:0b14 HL:c3fc SP:dfdd
0e6c  dec  d AF:7a40 BC:0012 DE:0b14 HL:c3fd SP:dfdd
0e6d  jr   nz,$0e6b AF:7a40 BC:0012 DE:0a14 HL:c3fd SP:dfdd
0e6b  ldi  (hl),a AF:7a40 BC:0012 DE:0a14 HL:c3fd SP:dfdd
0e6c  dec  d AF:7a40 BC:0012 DE:0a14 HL:c3fe SP:dfdd
0e6d  jr   nz,$0e6b AF:7a40 BC:0012 DE:0914 HL:c3fe SP:dfdd
0e6b  ldi  (hl),a AF:7a40 BC:0012 DE:0914 HL:c3fe SP:dfdd
0e6c  dec  d AF:7a40 BC:0012 DE:0914 HL:c3ff SP:dfdd
0e6d  jr   nz,$0e6b AF:7a40 BC:0012 DE:0814 HL:c3ff SP:dfdd
0e6b  ldi  (hl),a AF:7a40 BC:0012 DE:0814 HL:c3ff SP:dfdd
0e6c  dec  d AF:7a40 BC:0012 DE:0814 HL:c400 SP:dfdd
0e6d  jr   nz,$0e6b AF:7a40 BC:0012 DE:0714 HL:c400 SP:dfdd
0e6b  ldi  (hl),a AF:7a40 BC:0012 DE:0714 HL:c400 SP:dfdd
0e6c  dec  d AF:7a40 BC:0012 DE:0714 HL:c401 SP:dfdd
0e6d  jr   nz,$0e6b AF:7a40 BC:0012 DE:0614 HL:c401 SP:dfdd
0e6b  ldi  (hl),a AF:7a40 BC:0012 DE:0614 HL:c401 SP:dfdd
0e6c  dec  d AF:7a40 BC:0012 DE:0614 HL:c402 SP:dfdd
0e6d  jr   nz,$0e6b AF:7a40 BC:0012 DE:0514 HL:c402 SP:dfdd
0e6b  ldi  (hl),a AF:7a40 BC:0012 DE:0514 HL:c402 SP:dfdd
0e6c  dec  d AF:7a40 BC:0012 DE:0514 HL:c403 SP:dfdd
0e6d  jr   nz,$0e6b AF:7a40 BC:0012 DE:0414 HL:c403 SP:dfdd
0e6b  ldi  (hl),a AF:7a40 BC:0012 DE:0414 HL:c403 SP:dfdd
03ae  push af AF:7a40 BC:0012 DE:0414 HL:c403 SP:dfdb
03af  ld   a,($ffd0) AF:7a40 BC:0012 DE:0414 HL:c403 SP:dfd9
03b1  and  a,a AF:0040 BC:0012 DE:0414 HL:c403 SP:dfd9
03b2  jr   z,$03df AF:00a0 BC:0012 DE:0414 HL:c403 SP:dfd9
03df  pop  af AF:00a0 BC:0012 DE:0414 HL:c403 SP:dfd9
03e0  reti AF:7a40 BC:0012 DE:0414 HL:c403 SP:dfdb
0e6b  ldi  (hl),a AF:7a40 BC:0012 DE:0414 HL:c403 SP:dfdd
0e6c  dec  d AF:7a40 BC:0012 DE:0414 HL:c404 SP:dfdd
0e6d  jr   nz,$0e6b AF:7a40 BC:0012 DE:0314 HL:c404 SP:dfdd
0e6b  ldi  (hl),a AF:7a40 BC:0012 DE:0314 HL:c404 SP:dfdd
0e6c  dec  d AF:7a40 BC:0012 DE:0314 HL:c405 SP:dfdd
0e6d  jr   nz,$0e6b AF:7a40 BC:0012 DE:0214 HL:c405 SP:dfdd
0e6b  ldi  (hl),a AF:7a40 BC:0012 DE:0214 HL:c405 SP:dfdd
0e6c  dec  d AF:7a40 BC:0012 DE:0214 HL:c406 SP:dfdd
0e6d  jr   nz,$0e6b AF:7a40 BC:0012 DE:0114 HL:c406 SP:dfdd
0e6b  ldi  (hl),a AF:7a40 BC:0012 DE:0114 HL:c406 SP:dfdd
0e6c  dec  d AF:7a40 BC:0012 DE:0114 HL:c407 SP:dfdd
0e6d  jr   nz,$0e6b AF:7ac0 BC:0012 DE:0014 HL:c407 SP:dfdd
0e6f  ret AF:7ac0 BC:0012 DE:0014 HL:c407 SP:dfdd
0e67  ld   (hl),$7e AF:7ac0 BC:0012 DE:0014 HL:c407 SP:dfdf
0e69  ret AF:7ac0 BC:0012 DE:0014 HL:c407 SP:dfdf
0e7b  call $17a8 AF:7ac0 BC:0012 DE:0014 HL:c407 SP:dfe1
17a8  ld   a,($cd59) AF:7ac0 BC:0012 DE:0014 HL:c407 SP:dfdf
17ab  bit  0,a AF:00c0 BC:0012 DE:0014 HL:c407 SP:dfdf
17ad  ret  z AF:00a0 BC:0012 DE:0014 HL:c407 SP:dfdf
0e7e  call $35e5 AF:00a0 BC:0012 DE:0014 HL:c407 SP:dfe1
35e5  ld   a,$01 AF:00a0 BC:0012 DE:0014 HL:c407 SP:dfdf
35e7  ld   ($ffde),a AF:01a0 BC:0012 DE:0014 HL:c407 SP:dfdf
35e9  ld   c,$03 AF:01a0 BC:0012 DE:0014 HL:c407 SP:dfdf
35eb  call $0324 AF:01a0 BC:0003 DE:0014 HL:c407 SP:dfdf
0324  call $0317 AF:01a0 BC:0003 DE:0014 HL:c407 SP:dfdd
0317  ld   a,$01 AF:01a0 BC:0003 DE:0014 HL:c407 SP:dfdb
0319  ld   ($cc33),a AF:01a0 BC:0003 DE:0014 HL:c407 SP:dfdb
031c  halt AF:01a0 BC:0003 DE:0014 HL:c407 SP:dfdb
031d  ld   a,($cc33) AF:01a0 BC:0003 DE:0014 HL:c407 SP:dfdb
03ae  push af AF:01a0 BC:0003 DE:0014 HL:c407 SP:dfd9
03af  ld   a,($ffd0) AF:01a0 BC:0003 DE:0014 HL:c407 SP:dfd7
03b1  and  a,a AF:00a0 BC:0003 DE:0014 HL:c407 SP:dfd7
03b2  jr   z,$03df AF:00a0 BC:0003 DE:0014 HL:c407 SP:dfd7
03df  pop  af AF:00a0 BC:0003 DE:0014 HL:c407 SP:dfd7
03e0  reti AF:01a0 BC:0003 DE:0014 HL:c407 SP:dfd9
031d  ld   a,($cc33) AF:01a0 BC:0003 DE:0014 HL:c407 SP:dfdb
0320  and  a,a AF:01a0 BC:0003 DE:0014 HL:c407 SP:dfdb
0321  jr   nz,$031c AF:0120 BC:0003 DE:0014 HL:c407 SP:dfdb
031c  halt AF:0120 BC:0003 DE:0014 HL:c407 SP:dfdb
031d  ld   a,($cc33) AF:0120 BC:0003 DE:0014 HL:c407 SP:dfdb
03ae  push af AF:0120 BC:0003 DE:0014 HL:c407 SP:dfd9
03af  ld   a,($ffd0) AF:0120 BC:0003 DE:0014 HL:c407 SP:dfd7
03b1  and  a,a AF:0020 BC:0003 DE:0014 HL:c407 SP:dfd7
03b2  jr   z,$03df AF:00a0 BC:0003 DE:0014 HL:c407 SP:dfd7
03df  pop  af AF:00a0 BC:0003 DE:0014 HL:c407 SP:dfd7
03e0  reti AF:0120 BC:0003 DE:0014 HL:c407 SP:dfd9
031d  ld   a,($cc33) AF:0120 BC:0003 DE:0014 HL:c407 SP:dfdb
0320  and  a,a AF:0120 BC:0003 DE:0014 HL:c407 SP:dfdb
0321  jr   nz,$031c AF:0120 BC:0003 DE:0014 HL:c407 SP:dfdb
031c  halt AF:0120 BC:0003 DE:0014 HL:c407 SP:dfdb
031d  ld   a,($cc33) AF:0120 BC:0003 DE:0014 HL:c407 SP:dfdb
03ae  push af AF:0120 BC:0003 DE:0014 HL:c407 SP:dfd9
03af  ld   a,($ffd0) AF:0120 BC:0003 DE:0014 HL:c407 SP:dfd7
03b1  and  a,a AF:0020 BC:0003 DE:0014 HL:c407 SP:dfd7
03b2  jr   z,$03df AF:00a0 BC:0003 DE:0014 HL:c407 SP:dfd7
03df  pop  af AF:00a0 BC:0003 DE:0014 HL:c407 SP:dfd7
03e0  reti AF:0120 BC:0003 DE:0014 HL:c407 SP:dfd9
031d  ld   a,($cc33) AF:0120 BC:0003 DE:0014 HL:c407 SP:dfdb
0320  and  a,a AF:0120 BC:0003 DE:0014 HL:c407 SP:dfdb
0321  jr   nz,$031c AF:0120 BC:0003 DE:0014 HL:c407 SP:dfdb
031c  halt AF:0120 BC:0003 DE:0014 HL:c407 SP:dfdb
031d  ld   a,($cc33) AF:0120 BC:0003 DE:0014 HL:c407 SP:dfdb
03ae  push af AF:0120 BC:0003 DE:0014 HL:c407 SP:dfd9
03af  ld   a,($ffd0) AF:0120 BC:0003 DE:0014 HL:c407 SP:dfd7
03b1  and  a,a AF:0020 BC:0003 DE:0014 HL:c407 SP:dfd7
03b2  jr   z,$03df AF:00a0 BC:0003 DE:0014 HL:c407 SP:dfd7
03df  pop  af AF:00a0 BC:0003 DE:0014 HL:c407 SP:dfd7
03e0  reti AF:0120 BC:0003 DE:0014 HL:c407 SP:dfd9
031d  ld   a,($cc33) AF:0120 BC:0003 DE:0014 HL:c407 SP:dfdb
0320  and  a,a AF:0120 BC:0003 DE:0014 HL:c407 SP:dfdb
0321  jr   nz,$031c AF:0120 BC:0003 DE:0014 HL:c407 SP:dfdb
031c  halt AF:0120 BC:0003 DE:0014 HL:c407 SP:dfdb
031d  ld   a,($cc33) AF:0120 BC:0003 DE:0014 HL:c407 SP:dfdb
03ae  push af AF:0120 BC:0003 DE:0014 HL:c407 SP:dfd9
03af  ld   a,($ffd0) AF:0120 BC:0003 DE:0014 HL:c407 SP:dfd7
03b1  and  a,a AF:0020 BC:0003 DE:0014 HL:c407 SP:dfd7
03b2  jr   z,$03df AF:00a0 BC:0003 DE:0014 HL:c407 SP:dfd7
03df  pop  af AF:00a0 BC:0003 DE:0014 HL:c407 SP:dfd7
03e0  reti AF:0120 BC:0003 DE:0014 HL:c407 SP:dfd9
031d  ld   a,($cc33) AF:0120 BC:0003 DE:0014 HL:c407 SP:dfdb
0320  and  a,a AF:0120 BC:0003 DE:0014 HL:c407 SP:dfdb
0321  jr   nz,$031c AF:0120 BC:0003 DE:0014 HL:c407 SP:dfdb
031c  halt AF:0120 BC:0003 DE:0014 HL:c407 SP:dfdb
031d  ld   a,($cc33) AF:0120 BC:0003 DE:0014 HL:c407 SP:dfdb
03ae  push af AF:0120 BC:0003 DE:0014 HL:c407 SP:dfd9
03af  ld   a,($ffd0) AF:0120 BC:0003 DE:0014 HL:c407 SP:dfd7
03b1  and  a,a AF:0020 BC:0003 DE:0014 HL:c407 SP:dfd7
03b2  jr   z,$03df AF:00a0 BC:0003 DE:0014 HL:c407 SP:dfd7
03df  pop  af AF:00a0 BC:0003 DE:0014 HL:c407 SP:dfd7
03e0  reti AF:0120 BC:0003 DE:0014 HL:c407 SP:dfd9
031d  ld   a,($cc33) AF:0120 BC:0003 DE:0014 HL:c407 SP:dfdb
0320  and  a,a AF:0120 BC:0003 DE:0014 HL:c407 SP:dfdb
0321  jr   nz,$031c AF:0120 BC:0003 DE:0014 HL:c407 SP:dfdb
031c  halt AF:0120 BC:0003 DE:0014 HL:c407 SP:dfdb
031d  ld   a,($cc33) AF:0120 BC:0003 DE:0014 HL:c407 SP:dfdb
03ae  push af AF:0120 BC:0003 DE:0014 HL:c407 SP:dfd9
03af  ld   a,($ffd0) AF:0120 BC:0003 DE:0014 HL:c407 SP:dfd7
03b1  and  a,a AF:0020 BC:0003 DE:0014 HL:c407 SP:dfd7
03b2  jr   z,$03df AF:00a0 BC:0003 DE:0014 HL:c407 SP:dfd7
03df  pop  af AF:00a0 BC:0003 DE:0014 HL:c407 SP:dfd7
03e0  reti AF:0120 BC:0003 DE:0014 HL:c407 SP:dfd9
031d  ld   a,($cc33) AF:0120 BC:0003 DE:0014 HL:c407 SP:dfdb
0320  and  a,a AF:0120 BC:0003 DE:0014 HL:c407 SP:dfdb
0321  jr   nz,$031c AF:0120 BC:0003 DE:0014 HL:c407 SP:dfdb
031c  halt AF:0120 BC:0003 DE:0014 HL:c407 SP:dfdb
031d  ld   a,($cc33) AF:0120 BC:0003 DE:0014 HL:c407 SP:dfdb
03ae  push af AF:0120 BC:0003 DE:0014 HL:c407 SP:dfd9
03af  ld   a,($ffd0) AF:0120 BC:0003 DE:0014 HL:c407 SP:dfd7
03b1  and  a,a AF:0020 BC:0003 DE:0014 HL:c407 SP:dfd7
03b2  jr   z,$03df AF:00a0 BC:0003 DE:0014 HL:c407 SP:dfd7
03df  pop  af AF:00a0 BC:0003 DE:0014 HL:c407 SP:dfd7
03e0  reti AF:0120 BC:0003 DE:0014 HL:c407 SP:dfd9
031d  ld   a,($cc33) AF:0120 BC:0003 DE:0014 HL:c407 SP:dfdb
0320  and  a,a AF:0120 BC:0003 DE:0014 HL:c407 SP:dfdb
0321  jr   nz,$031c AF:0120 BC:0003 DE:0014 HL:c407 SP:dfdb
031c  halt AF:0120 BC:0003 DE:0014 HL:c407 SP:dfdb
031d  ld   a,($cc33) AF:0120 BC:0003 DE:0014 HL:c407 SP:dfdb
03ae  push af AF:0120 BC:0003 DE:0014 HL:c407 SP:dfd9
03af  ld   a,($ffd0) AF:0120 BC:0003 DE:0014 HL:c407 SP:dfd7
03b1  and  a,a AF:0020 BC:0003 DE:0014 HL:c407 SP:dfd7
03b2  jr   z,$03df AF:00a0 BC:0003 DE:0014 HL:c407 SP:dfd7
03df  pop  af AF:00a0 BC:0003 DE:0014 HL:c407 SP:dfd7
03e0  reti AF:0120 BC:0003 DE:0014 HL:c407 SP:dfd9
031d  ld   a,($cc33) AF:0120 BC:0003 DE:0014 HL:c407 SP:dfdb
0320  and  a,a AF:0120 BC:0003 DE:0014 HL:c407 SP:dfdb
0321  jr   nz,$031c AF:0120 BC:0003 DE:0014 HL:c407 SP:dfdb
031c  halt AF:0120 BC:0003 DE:0014 HL:c407 SP:dfdb
031d  ld   a,($cc33) AF:0120 BC:0003 DE:0014 HL:c407 SP:dfdb
03ae  push af AF:0120 BC:0003 DE:0014 HL:c407 SP:dfd9
03af  ld   a,($ffd0) AF:0120 BC:0003 DE:0014 HL:c407 SP:dfd7
03b1  and  a,a AF:0020 BC:0003 DE:0014 HL:c407 SP:dfd7
03b2  jr   z,$03df AF:00a0 BC:0003 DE:0014 HL:c407 SP:dfd7
03df  pop  af AF:00a0 BC:0003 DE:0014 HL:c407 SP:dfd7
03e0  reti AF:0120 BC:0003 DE:0014 HL:c407 SP:dfd9
031d  ld   a,($cc33) AF:0120 BC:0003 DE:0014 HL:c407 SP:dfdb
0320  and  a,a AF:0120 BC:0003 DE:0014 HL:c407 SP:dfdb
0321  jr   nz,$031c AF:0120 BC:0003 DE:0014 HL:c407 SP:dfdb
031c  halt AF:0120 BC:0003 DE:0014 HL:c407 SP:dfdb
031d  ld   a,($cc33) AF:0120 BC:0003 DE:0014 HL:c407 SP:dfdb
03ae  push af AF:0120 BC:0003 DE:0014 HL:c407 SP:dfd9
03af  ld   a,($ffd0) AF:0120 BC:0003 DE:0014 HL:c407 SP:dfd7
03b1  and  a,a AF:0020 BC:0003 DE:0014 HL:c407 SP:dfd7
03b2  jr   z,$03df AF:00a0 BC:0003 DE:0014 HL:c407 SP:dfd7
03df  pop  af AF:00a0 BC:0003 DE:0014 HL:c407 SP:dfd7
03e0  reti AF:0120 BC:0003 DE:0014 HL:c407 SP:dfd9
031d  ld   a,($cc33) AF:0120 BC:0003 DE:0014 HL:c407 SP:dfdb
0320  and  a,a AF:0120 BC:0003 DE:0014 HL:c407 SP:dfdb
0321  jr   nz,$031c AF:0120 BC:0003 DE:0014 HL:c407 SP:dfdb
031c  halt AF:0120 BC:0003 DE:0014 HL:c407 SP:dfdb
031d  ld   a,($cc33) AF:0120 BC:0003 DE:0014 HL:c407 SP:dfdb
03ae  push af AF:0120 BC:0003 DE:0014 HL:c407 SP:dfd9
03af  ld   a,($ffd0) AF:0120 BC:0003 DE:0014 HL:c407 SP:dfd7
03b1  and  a,a AF:0020 BC:0003 DE:0014 HL:c407 SP:dfd7
03b2  jr   z,$03df AF:00a0 BC:0003 DE:0014 HL:c407 SP:dfd7
03df  pop  af AF:00a0 BC:0003 DE:0014 HL:c407 SP:dfd7
03e0  reti AF:0120 BC:0003 DE:0014 HL:c407 SP:dfd9
031d  ld   a,($cc33) AF:0120 BC:0003 DE:0014 HL:c407 SP:dfdb
0320  and  a,a AF:0120 BC:0003 DE:0014 HL:c407 SP:dfdb
0321  jr   nz,$031c AF:0120 BC:0003 DE:0014 HL:c407 SP:dfdb
031c  halt AF:0120 BC:0003 DE:0014 HL:c407 SP:dfdb
031d  ld   a,($cc33) AF:0120 BC:0003 DE:0014 HL:c407 SP:dfdb
03ae  push af AF:0120 BC:0003 DE:0014 HL:c407 SP:dfd9
03af  ld   a,($ffd0) AF:0120 BC:0003 DE:0014 HL:c407 SP:dfd7
03b1  and  a,a AF:0020 BC:0003 DE:0014 HL:c407 SP:dfd7
03b2  jr   z,$03df AF:00a0 BC:0003 DE:0014 HL:c407 SP:dfd7
03df  pop  af AF:00a0 BC:0003 DE:0014 HL:c407 SP:dfd7
03e0  reti AF:0120 BC:0003 DE:0014 HL:c407 SP:dfd9
031d  ld   a,($cc33) AF:0120 BC:0003 DE:0014 HL:c407 SP:dfdb
0320  and  a,a AF:0120 BC:0003 DE:0014 HL:c407 SP:dfdb
0321  jr   nz,$031c AF:0120 BC:0003 DE:0014 HL:c407 SP:dfdb
031c  halt AF:0120 BC:0003 DE:0014 HL:c407 SP:dfdb
031d  ld   a,($cc33) AF:0120 BC:0003 DE:0014 HL:c407 SP:dfdb
03ae  push af AF:0120 BC:0003 DE:0014 HL:c407 SP:dfd9
03af  ld   a,($ffd0) AF:0120 BC:0003 DE:0014 HL:c407 SP:dfd7
03b1  and  a,a AF:0020 BC:0003 DE:0014 HL:c407 SP:dfd7
03b2  jr   z,$03df AF:00a0 BC:0003 DE:0014 HL:c407 SP:dfd7
03df  pop  af AF:00a0 BC:0003 DE:0014 HL:c407 SP:dfd7
03e0  reti AF:0120 BC:0003 DE:0014 HL:c407 SP:dfd9
031d  ld   a,($cc33) AF:0120 BC:0003 DE:0014 HL:c407 SP:dfdb
0320  and  a,a AF:0120 BC:0003 DE:0014 HL:c407 SP:dfdb
0321  jr   nz,$031c AF:0120 BC:0003 DE:0014 HL:c407 SP:dfdb
031c  halt AF:0120 BC:0003 DE:0014 HL:c407 SP:dfdb
031d  ld   a,($cc33) AF:0120 BC:0003 DE:0014 HL:c407 SP:dfdb
03ae  push af AF:0120 BC:0003 DE:0014 HL:c407 SP:dfd9
03af  ld   a,($ffd0) AF:0120 BC:0003 DE:0014 HL:c407 SP:dfd7
03b1  and  a,a AF:0020 BC:0003 DE:0014 HL:c407 SP:dfd7
03b2  jr   z,$03df AF:00a0 BC:0003 DE:0014 HL:c407 SP:dfd7
03df  pop  af AF:00a0 BC:0003 DE:0014 HL:c407 SP:dfd7
03e0  reti AF:0120 BC:0003 DE:0014 HL:c407 SP:dfd9
031d  ld   a,($cc33) AF:0120 BC:0003 DE:0014 HL:c407 SP:dfdb
0320  and  a,a AF:0120 BC:0003 DE:0014 HL:c407 SP:dfdb
0321  jr   nz,$031c AF:0120 BC:0003 DE:0014 HL:c407 SP:dfdb
031c  halt AF:0120 BC:0003 DE:0014 HL:c407 SP:dfdb
031d  ld   a,($cc33) AF:0120 BC:0003 DE:0014 HL:c407 SP:dfdb
03ae  push af AF:0120 BC:0003 DE:0014 HL:c407 SP:dfd9
03af  ld   a,($ffd0) AF:0120 BC:0003 DE:0014 HL:c407 SP:dfd7
03b1  and  a,a AF:0020 BC:0003 DE:0014 HL:c407 SP:dfd7
03b2  jr   z,$03df AF:00a0 BC:0003 DE:0014 HL:c407 SP:dfd7
03df  pop  af AF:00a0 BC:0003 DE:0014 HL:c407 SP:dfd7
03e0  reti AF:0120 BC:0003 DE:0014 HL:c407 SP:dfd9
031d  ld   a,($cc33) AF:0120 BC:0003 DE:0014 HL:c407 SP:dfdb
0320  and  a,a AF:0120 BC:0003 DE:0014 HL:c407 SP:dfdb
0321  jr   nz,$031c AF:0120 BC:0003 DE:0014 HL:c407 SP:dfdb
031c  halt AF:0120 BC:0003 DE:0014 HL:c407 SP:dfdb
031d  ld   a,($cc33) AF:0120 BC:0003 DE:0014 HL:c407 SP:dfdb
03ae  push af AF:0120 BC:0003 DE:0014 HL:c407 SP:dfd9
03af  ld   a,($ffd0) AF:0120 BC:0003 DE:0014 HL:c407 SP:dfd7
03b1  and  a,a AF:0020 BC:0003 DE:0014 HL:c407 SP:dfd7
03b2  jr   z,$03df AF:00a0 BC:0003 DE:0014 HL:c407 SP:dfd7
03df  pop  af AF:00a0 BC:0003 DE:0014 HL:c407 SP:dfd7
03e0  reti AF:0120 BC:0003 DE:0014 HL:c407 SP:dfd9
031d  ld   a,($cc33) AF:0120 BC:0003 DE:0014 HL:c407 SP:dfdb
0320  and  a,a AF:0120 BC:0003 DE:0014 HL:c407 SP:dfdb
0321  jr   nz,$031c AF:0120 BC:0003 DE:0014 HL:c407 SP:dfdb
031c  halt AF:0120 BC:0003 DE:0014 HL:c407 SP:dfdb
031d  ld   a,($cc33) AF:0120 BC:0003 DE:0014 HL:c407 SP:dfdb
03ae  push af AF:0120 BC:0003 DE:0014 HL:c407 SP:dfd9
03af  ld   a,($ffd0) AF:0120 BC:0003 DE:0014 HL:c407 SP:dfd7
03b1  and  a,a AF:0020 BC:0003 DE:0014 HL:c407 SP:dfd7
03b2  jr   z,$03df AF:00a0 BC:0003 DE:0014 HL:c407 SP:dfd7
03df  pop  af AF:00a0 BC:0003 DE:0014 HL:c407 SP:dfd7
03e0  reti AF:0120 BC:0003 DE:0014 HL:c407 SP:dfd9
031d  ld   a,($cc33) AF:0120 BC:0003 DE:0014 HL:c407 SP:dfdb
0320  and  a,a AF:0120 BC:0003 DE:0014 HL:c407 SP:dfdb
0321  jr   nz,$031c AF:0120 BC:0003 DE:0014 HL:c407 SP:dfdb
031c  halt AF:0120 BC:0003 DE:0014 HL:c407 SP:dfdb
031d  ld   a,($cc33) AF:0120 BC:0003 DE:0014 HL:c407 SP:dfdb
03ae  push af AF:0120 BC:0003 DE:0014 HL:c407 SP:dfd9
03af  ld   a,($ffd0) AF:0120 BC:0003 DE:0014 HL:c407 SP:dfd7
03b1  and  a,a AF:0020 BC:0003 DE:0014 HL:c407 SP:dfd7
03b2  jr   z,$03df AF:00a0 BC:0003 DE:0014 HL:c407 SP:dfd7
03df  pop  af AF:00a0 BC:0003 DE:0014 HL:c407 SP:dfd7
03e0  reti AF:0120 BC:0003 DE:0014 HL:c407 SP:dfd9
031d  ld   a,($cc33) AF:0120 BC:0003 DE:0014 HL:c407 SP:dfdb
0320  and  a,a AF:0120 BC:0003 DE:0014 HL:c407 SP:dfdb
0321  jr   nz,$031c AF:0120 BC:0003 DE:0014 HL:c407 SP:dfdb
031c  halt AF:0120 BC:0003 DE:0014 HL:c407 SP:dfdb
031d  ld   a,($cc33) AF:0120 BC:0003 DE:0014 HL:c407 SP:dfdb
03ae  push af AF:0120 BC:0003 DE:0014 HL:c407 SP:dfd9
03af  ld   a,($ffd0) AF:0120 BC:0003 DE:0014 HL:c407 SP:dfd7
03b1  and  a,a AF:0020 BC:0003 DE:0014 HL:c407 SP:dfd7
03b2  jr   z,$03df AF:00a0 BC:0003 DE:0014 HL:c407 SP:dfd7
03df  pop  af AF:00a0 BC:0003 DE:0014 HL:c407 SP:dfd7
03e0  reti AF:0120 BC:0003 DE:0014 HL:c407 SP:dfd9
031d  ld   a,($cc33) AF:0120 BC:0003 DE:0014 HL:c407 SP:dfdb
0320  and  a,a AF:0120 BC:0003 DE:0014 HL:c407 SP:dfdb
0321  jr   nz,$031c AF:0120 BC:0003 DE:0014 HL:c407 SP:dfdb
031c  halt AF:0120 BC:0003 DE:0014 HL:c407 SP:dfdb
031d  ld   a,($cc33) AF:0120 BC:0003 DE:0014 HL:c407 SP:dfdb
03ae  push af AF:0120 BC:0003 DE:0014 HL:c407 SP:dfd9
03af  ld   a,($ffd0) AF:0120 BC:0003 DE:0014 HL:c407 SP:dfd7
03b1  and  a,a AF:0020 BC:0003 DE:0014 HL:c407 SP:dfd7
03b2  jr   z,$03df AF:00a0 BC:0003 DE:0014 HL:c407 SP:dfd7
03df  pop  af AF:00a0 BC:0003 DE:0014 HL:c407 SP:dfd7
03e0  reti AF:0120 BC:0003 DE:0014 HL:c407 SP:dfd9
031d  ld   a,($cc33) AF:0120 BC:0003 DE:0014 HL:c407 SP:dfdb
0320  and  a,a AF:0120 BC:0003 DE:0014 HL:c407 SP:dfdb
0321  jr   nz,$031c AF:0120 BC:0003 DE:0014 HL:c407 SP:dfdb
031c  halt AF:0120 BC:0003 DE:0014 HL:c407 SP:dfdb
031d  ld   a,($cc33) AF:0120 BC:0003 DE:0014 HL:c407 SP:dfdb
03ae  push af AF:0120 BC:0003 DE:0014 HL:c407 SP:dfd9
03af  ld   a,($ffd0) AF:0120 BC:0003 DE:0014 HL:c407 SP:dfd7
03b1  and  a,a AF:0020 BC:0003 DE:0014 HL:c407 SP:dfd7
03b2  jr   z,$03df AF:00a0 BC:0003 DE:0014 HL:c407 SP:dfd7
03df  pop  af AF:00a0 BC:0003 DE:0014 HL:c407 SP:dfd7
03e0  reti AF:0120 BC:0003 DE:0014 HL:c407 SP:dfd9
031d  ld   a,($cc33) AF:0120 BC:0003 DE:0014 HL:c407 SP:dfdb
0320  and  a,a AF:0120 BC:0003 DE:0014 HL:c407 SP:dfdb
0321  jr   nz,$031c AF:0120 BC:0003 DE:0014 HL:c407 SP:dfdb
031c  halt AF:0120 BC:0003 DE:0014 HL:c407 SP:dfdb
031d  ld   a,($cc33) AF:0120 BC:0003 DE:0014 HL:c407 SP:dfdb
03ae  push af AF:0120 BC:0003 DE:0014 HL:c407 SP:dfd9
03af  ld   a,($ffd0) AF:0120 BC:0003 DE:0014 HL:c407 SP:dfd7
03b1  and  a,a AF:0020 BC:0003 DE:0014 HL:c407 SP:dfd7
03b2  jr   z,$03df AF:00a0 BC:0003 DE:0014 HL:c407 SP:dfd7
03df  pop  af AF:00a0 BC:0003 DE:0014 HL:c407 SP:dfd7
03e0  reti AF:0120 BC:0003 DE:0014 HL:c407 SP:dfd9
031d  ld   a,($cc33) AF:0120 BC:0003 DE:0014 HL:c407 SP:dfdb
0320  and  a,a AF:0120 BC:0003 DE:0014 HL:c407 SP:dfdb
0321  jr   nz,$031c AF:0120 BC:0003 DE:0014 HL:c407 SP:dfdb
031c  halt AF:0120 BC:0003 DE:0014 HL:c407 SP:dfdb
031d  ld   a,($cc33) AF:0120 BC:0003 DE:0014 HL:c407 SP:dfdb
03ae  push af AF:0120 BC:0003 DE:0014 HL:c407 SP:dfd9
03af  ld   a,($ffd0) AF:0120 BC:0003 DE:0014 HL:c407 SP:dfd7
03b1  and  a,a AF:0020 BC:0003 DE:0014 HL:c407 SP:dfd7
03b2  jr   z,$03df AF:00a0 BC:0003 DE:0014 HL:c407 SP:dfd7
03df  pop  af AF:00a0 BC:0003 DE:0014 HL:c407 SP:dfd7
03e0  reti AF:0120 BC:0003 DE:0014 HL:c407 SP:dfd9
031d  ld   a,($cc33) AF:0120 BC:0003 DE:0014 HL:c407 SP:dfdb
0320  and  a,a AF:0120 BC:0003 DE:0014 HL:c407 SP:dfdb
0321  jr   nz,$031c AF:0120 BC:0003 DE:0014 HL:c407 SP:dfdb
031c  halt AF:0120 BC:0003 DE:0014 HL:c407 SP:dfdb
031d  ld   a,($cc33) AF:0120 BC:0003 DE:0014 HL:c407 SP:dfdb
03ae  push af AF:0120 BC:0003 DE:0014 HL:c407 SP:dfd9
03af  ld   a,($ffd0) AF:0120 BC:0003 DE:0014 HL:c407 SP:dfd7
03b1  and  a,a AF:0020 BC:0003 DE:0014 HL:c407 SP:dfd7
03b2  jr   z,$03df AF:00a0 BC:0003 DE:0014 HL:c407 SP:dfd7
03df  pop  af AF:00a0 BC:0003 DE:0014 HL:c407 SP:dfd7
03e0  reti AF:0120 BC:0003 DE:0014 HL:c407 SP:dfd9
031d  ld   a,($cc33) AF:0120 BC:0003 DE:0014 HL:c407 SP:dfdb
0320  and  a,a AF:0120 BC:0003 DE:0014 HL:c407 SP:dfdb
0321  jr   nz,$031c AF:0120 BC:0003 DE:0014 HL:c407 SP:dfdb
031c  halt AF:0120 BC:0003 DE:0014 HL:c407 SP:dfdb
031d  ld   a,($cc33) AF:0120 BC:0003 DE:0014 HL:c407 SP:dfdb
03ae  push af AF:0120 BC:0003 DE:0014 HL:c407 SP:dfd9
03af  ld   a,($ffd0) AF:0120 BC:0003 DE:0014 HL:c407 SP:dfd7
03b1  and  a,a AF:0020 BC:0003 DE:0014 HL:c407 SP:dfd7
03b2  jr   z,$03df AF:00a0 BC:0003 DE:0014 HL:c407 SP:dfd7
03df  pop  af AF:00a0 BC:0003 DE:0014 HL:c407 SP:dfd7
03e0  reti AF:0120 BC:0003 DE:0014 HL:c407 SP:dfd9
031d  ld   a,($cc33) AF:0120 BC:0003 DE:0014 HL:c407 SP:dfdb
0320  and  a,a AF:0120 BC:0003 DE:0014 HL:c407 SP:dfdb
0321  jr   nz,$031c AF:0120 BC:0003 DE:0014 HL:c407 SP:dfdb
031c  halt AF:0120 BC:0003 DE:0014 HL:c407 SP:dfdb
031d  ld   a,($cc33) AF:0120 BC:0003 DE:0014 HL:c407 SP:dfdb
03ae  push af AF:0120 BC:0003 DE:0014 HL:c407 SP:dfd9
03af  ld   a,($ffd0) AF:0120 BC:0003 DE:0014 HL:c407 SP:dfd7
03b1  and  a,a AF:0020 BC:0003 DE:0014 HL:c407 SP:dfd7
03b2  jr   z,$03df AF:00a0 BC:0003 DE:0014 HL:c407 SP:dfd7
03df  pop  af AF:00a0 BC:0003 DE:0014 HL:c407 SP:dfd7
03e0  reti AF:0120 BC:0003 DE:0014 HL:c407 SP:dfd9
031d  ld   a,($cc33) AF:0120 BC:0003 DE:0014 HL:c407 SP:dfdb
0320  and  a,a AF:0120 BC:0003 DE:0014 HL:c407 SP:dfdb
0321  jr   nz,$031c AF:0120 BC:0003 DE:0014 HL:c407 SP:dfdb
031c  halt AF:0120 BC:0003 DE:0014 HL:c407 SP:dfdb
031d  ld   a,($cc33) AF:0120 BC:0003 DE:0014 HL:c407 SP:dfdb
03ae  push af AF:0120 BC:0003 DE:0014 HL:c407 SP:dfd9
03af  ld   a,($ffd0) AF:0120 BC:0003 DE:0014 HL:c407 SP:dfd7
03b1  and  a,a AF:0020 BC:0003 DE:0014 HL:c407 SP:dfd7
03b2  jr   z,$03df AF:00a0 BC:0003 DE:0014 HL:c407 SP:dfd7
03df  pop  af AF:00a0 BC:0003 DE:0014 HL:c407 SP:dfd7
03e0  reti AF:0120 BC:0003 DE:0014 HL:c407 SP:dfd9
031d  ld   a,($cc33) AF:0120 BC:0003 DE:0014 HL:c407 SP:dfdb
0320  and  a,a AF:0120 BC:0003 DE:0014 HL:c407 SP:dfdb
0321  jr   nz,$031c AF:0120 BC:0003 DE:0014 HL:c407 SP:dfdb
031c  halt AF:0120 BC:0003 DE:0014 HL:c407 SP:dfdb
031d  ld   a,($cc33) AF:0120 BC:0003 DE:0014 HL:c407 SP:dfdb
03ae  push af AF:0120 BC:0003 DE:0014 HL:c407 SP:dfd9
03af  ld   a,($ffd0) AF:0120 BC:0003 DE:0014 HL:c407 SP:dfd7
03b1  and  a,a AF:0020 BC:0003 DE:0014 HL:c407 SP:dfd7
03b2  jr   z,$03df AF:00a0 BC:0003 DE:0014 HL:c407 SP:dfd7
03df  pop  af AF:00a0 BC:0003 DE:0014 HL:c407 SP:dfd7
03e0  reti AF:0120 BC:0003 DE:0014 HL:c407 SP:dfd9
031d  ld   a,($cc33) AF:0120 BC:0003 DE:0014 HL:c407 SP:dfdb
0320  and  a,a AF:0120 BC:0003 DE:0014 HL:c407 SP:dfdb
0321  jr   nz,$031c AF:0120 BC:0003 DE:0014 HL:c407 SP:dfdb
031c  halt AF:0120 BC:0003 DE:0014 HL:c407 SP:dfdb
031d  ld   a,($cc33) AF:0120 BC:0003 DE:0014 HL:c407 SP:dfdb
03ae  push af AF:0120 BC:0003 DE:0014 HL:c407 SP:dfd9
03af  ld   a,($ffd0) AF:0120 BC:0003 DE:0014 HL:c407 SP:dfd7
03b1  and  a,a AF:0020 BC:0003 DE:0014 HL:c407 SP:dfd7
03b2  jr   z,$03df AF:00a0 BC:0003 DE:0014 HL:c407 SP:dfd7
03df  pop  af AF:00a0 BC:0003 DE:0014 HL:c407 SP:dfd7
03e0  reti AF:0120 BC:0003 DE:0014 HL:c407 SP:dfd9
031d  ld   a,($cc33) AF:0120 BC:0003 DE:0014 HL:c407 SP:dfdb
0320  and  a,a AF:0120 BC:0003 DE:0014 HL:c407 SP:dfdb
0321  jr   nz,$031c AF:0120 BC:0003 DE:0014 HL:c407 SP:dfdb
031c  halt AF:0120 BC:0003 DE:0014 HL:c407 SP:dfdb
031d  ld   a,($cc33) AF:0120 BC:0003 DE:0014 HL:c407 SP:dfdb
03ae  push af AF:0120 BC:0003 DE:0014 HL:c407 SP:dfd9
03af  ld   a,($ffd0) AF:0120 BC:0003 DE:0014 HL:c407 SP:dfd7
03b1  and  a,a AF:0020 BC:0003 DE:0014 HL:c407 SP:dfd7
03b2  jr   z,$03df AF:00a0 BC:0003 DE:0014 HL:c407 SP:dfd7
03df  pop  af AF:00a0 BC:0003 DE:0014 HL:c407 SP:dfd7
03e0  reti AF:0120 BC:0003 DE:0014 HL:c407 SP:dfd9
031d  ld   a,($cc33) AF:0120 BC:0003 DE:0014 HL:c407 SP:dfdb
0320  and  a,a AF:0120 BC:0003 DE:0014 HL:c407 SP:dfdb
0321  jr   nz,$031c AF:0120 BC:0003 DE:0014 HL:c407 SP:dfdb
031c  halt AF:0120 BC:0003 DE:0014 HL:c407 SP:dfdb
031d  ld   a,($cc33) AF:0120 BC:0003 DE:0014 HL:c407 SP:dfdb
03ae  push af AF:0120 BC:0003 DE:0014 HL:c407 SP:dfd9
03af  ld   a,($ffd0) AF:0120 BC:0003 DE:0014 HL:c407 SP:dfd7
03b1  and  a,a AF:0020 BC:0003 DE:0014 HL:c407 SP:dfd7
03b2  jr   z,$03df AF:00a0 BC:0003 DE:0014 HL:c407 SP:dfd7
03df  pop  af AF:00a0 BC:0003 DE:0014 HL:c407 SP:dfd7
03e0  reti AF:0120 BC:0003 DE:0014 HL:c407 SP:dfd9
031d  ld   a,($cc33) AF:0120 BC:0003 DE:0014 HL:c407 SP:dfdb
0320  and  a,a AF:0120 BC:0003 DE:0014 HL:c407 SP:dfdb
0321  jr   nz,$031c AF:0120 BC:0003 DE:0014 HL:c407 SP:dfdb
031c  halt AF:0120 BC:0003 DE:0014 HL:c407 SP:dfdb
031d  ld   a,($cc33) AF:0120 BC:0003 DE:0014 HL:c407 SP:dfdb
03ae  push af AF:0120 BC:0003 DE:0014 HL:c407 SP:dfd9
03af  ld   a,($ffd0) AF:0120 BC:0003 DE:0014 HL:c407 SP:dfd7
03b1  and  a,a AF:0020 BC:0003 DE:0014 HL:c407 SP:dfd7
03b2  jr   z,$03df AF:00a0 BC:0003 DE:0014 HL:c407 SP:dfd7
03df  pop  af AF:00a0 BC:0003 DE:0014 HL:c407 SP:dfd7
03e0  reti AF:0120 BC:0003 DE:0014 HL:c407 SP:dfd9
031d  ld   a,($cc33) AF:0120 BC:0003 DE:0014 HL:c407 SP:dfdb
0320  and  a,a AF:0120 BC:0003 DE:0014 HL:c407 SP:dfdb
0321  jr   nz,$031c AF:0120 BC:0003 DE:0014 HL:c407 SP:dfdb
031c  halt AF:0120 BC:0003 DE:0014 HL:c407 SP:dfdb
031d  ld   a,($cc33) AF:0120 BC:0003 DE:0014 HL:c407 SP:dfdb
03ae  push af AF:0120 BC:0003 DE:0014 HL:c407 SP:dfd9
03af  ld   a,($ffd0) AF:0120 BC:0003 DE:0014 HL:c407 SP:dfd7
03b1  and  a,a AF:0020 BC:0003 DE:0014 HL:c407 SP:dfd7
03b2  jr   z,$03df AF:00a0 BC:0003 DE:0014 HL:c407 SP:dfd7
03df  pop  af AF:00a0 BC:0003 DE:0014 HL:c407 SP:dfd7
03e0  reti AF:0120 BC:0003 DE:0014 HL:c407 SP:dfd9
031d  ld   a,($cc33) AF:0120 BC:0003 DE:0014 HL:c407 SP:dfdb
0320  and  a,a AF:0120 BC:0003 DE:0014 HL:c407 SP:dfdb
0321  jr   nz,$031c AF:0120 BC:0003 DE:0014 HL:c407 SP:dfdb
031c  halt AF:0120 BC:0003 DE:0014 HL:c407 SP:dfdb
031d  ld   a,($cc33) AF:0120 BC:0003 DE:0014 HL:c407 SP:dfdb
03ae  push af AF:0120 BC:0003 DE:0014 HL:c407 SP:dfd9
03af  ld   a,($ffd0) AF:0120 BC:0003 DE:0014 HL:c407 SP:dfd7
03b1  and  a,a AF:0020 BC:0003 DE:0014 HL:c407 SP:dfd7
03b2  jr   z,$03df AF:00a0 BC:0003 DE:0014 HL:c407 SP:dfd7
03df  pop  af AF:00a0 BC:0003 DE:0014 HL:c407 SP:dfd7
03e0  reti AF:0120 BC:0003 DE:0014 HL:c407 SP:dfd9
031d  ld   a,($cc33) AF:0120 BC:0003 DE:0014 HL:c407 SP:dfdb
0320  and  a,a AF:0120 BC:0003 DE:0014 HL:c407 SP:dfdb
0321  jr   nz,$031c AF:0120 BC:0003 DE:0014 HL:c407 SP:dfdb
031c  halt AF:0120 BC:0003 DE:0014 HL:c407 SP:dfdb
031d  ld   a,($cc33) AF:0120 BC:0003 DE:0014 HL:c407 SP:dfdb
0150  push af AF:0120 BC:0003 DE:0014 HL:c407 SP:dfd9
0151  push bc AF:0120 BC:0003 DE:0014 HL:c407 SP:dfd7
0152  push de AF:0120 BC:0003 DE:0014 HL:c407 SP:dfd5
0153  push hl AF:0120 BC:0003 DE:0014 HL:c407 SP:dfd3
0154  ld   a,($ff99) AF:0120 BC:0003 DE:0014 HL:c407 SP:dfd1
0156  and  a,$03 AF:0020 BC:0003 DE:0014 HL:c407 SP:dfd1
0158  ld   e,a AF:00a0 BC:0003 DE:0014 HL:c407 SP:dfd1
0159  ld   d,$00 AF:00a0 BC:0003 DE:0000 HL:c407 SP:dfd1
015b  ld   hl,$016d AF:00a0 BC:0003 DE:0000 HL:c407 SP:dfd1
015e  add  hl,de AF:00a0 BC:0003 DE:0000 HL:016d SP:dfd1
015f  add  hl,de AF:0080 BC:0003 DE:0000 HL:016d SP:dfd1
0160  ldi  a,(hl) AF:0080 BC:0003 DE:0000 HL:016d SP:dfd1
0161  ld   h,(hl) AF:7580 BC:0003 DE:0000 HL:016e SP:dfd1
0162  ld   l,a AF:7580 BC:0003 DE:0000 HL:016e SP:dfd1
0163  ld   de,$0168 AF:7580 BC:0003 DE:0000 HL:0175 SP:dfd1
0166  push de AF:7580 BC:0003 DE:0168 HL:0175 SP:dfd1
0167  jp   hl AF:7580 BC:0003 DE:0168 HL:0175 SP:dfcf
0175  ld   a,($ff97) AF:7580 BC:0003 DE:0168 HL:0175 SP:dfcf
0177  inc  a AF:1080 BC:0003 DE:0168 HL:0175 SP:dfcf
0178  ld   ($ff97),a AF:1100 BC:0003 DE:0168 HL:0175 SP:dfcf
017a  bit  0,a AF:1100 BC:0003 DE:0168 HL:0175 SP:dfcf
017c  jr   nz,$0184 AF:1120 BC:0003 DE:0168 HL:0175 SP:dfcf
0184  ld   b,a AF:1120 BC:0003 DE:0168 HL:0175 SP:dfcf
0185  ld   a,($ffef) AF:1120 BC:1103 DE:0168 HL:0175 SP:dfcf
0187  adc  a,b AF:5320 BC:1103 DE:0168 HL:0175 SP:dfcf
0188  ld   ($ffef),a AF:6400 BC:1103 DE:0168 HL:0175 SP:dfcf
018a  ld   b,a AF:6400 BC:1103 DE:0168 HL:0175 SP:dfcf
018b  ld   a,($fff0) AF:6400 BC:6403 DE:0168 HL:0175 SP:dfcf
018d  sbc  a,b AF:2700 BC:6403 DE:0168 HL:0175 SP:dfcf
018e  ld   ($fff0),a AF:c350 BC:6403 DE:0168 HL:0175 SP:dfcf
0190  ld   a,($ff8f) AF:c350 BC:6403 DE:0168 HL:0175 SP:dfcf
0192  ld   ($fff1),a AF:0a50 BC:6403 DE:0168 HL:0175 SP:dfcf
0194  ld   a,($ff98) AF:0a50 BC:6403 DE:0168 HL:0175 SP:dfcf
0196  ld   ($ce3b),a AF:0450 BC:6403 DE:0168 HL:0175 SP:dfcf
0199  ld   a,($ffd9) AF:0450 BC:6403 DE:0168 HL:0175 SP:dfcf
019b  ld   ($ff43),a AF:0050 BC:6403 DE:0168 HL:0175 SP:dfcf
019d  ld   a,($ffda) AF:0050 BC:6403 DE:0168 HL:0175 SP:dfcf
019f  ld   ($ff42),a AF:0050 BC:6403 DE:0168 HL:0175 SP:dfcf
01a1  ld   a,($ccce) AF:0050 BC:6403 DE:0168 HL:0175 SP:dfcf
01a4  and  a,a AF:0050 BC:6403 DE:0168 HL:0175 SP:dfcf
01a5  jr   nz,$01af AF:00a0 BC:6403 DE:0168 HL:0175 SP:dfcf
01a7  ld   a,($ffdc) AF:00a0 BC:6403 DE:0168 HL:0175 SP:dfcf
01a9  ld   ($ff4a),a AF:90a0 BC:6403 DE:0168 HL:0175 SP:dfcf
01ab  ld   a,($ffdb) AF:90a0 BC:6403 DE:0168 HL:0175 SP:dfcf
01ad  ld   ($ff4b),a AF:07a0 BC:6403 DE:0168 HL:0175 SP:dfcf
01af  call $13ee AF:07a0 BC:6403 DE:0168 HL:0175 SP:dfcf
13ee  ld   a,($ffde) AF:07a0 BC:6403 DE:0168 HL:0175 SP:dfcd
13f0  and  a,a AF:01a0 BC:6403 DE:0168 HL:0175 SP:dfcd
13f1  ret  z AF:0120 BC:6403 DE:0168 HL:0175 SP:dfcd
13f2  ld   ($ffe3),sp AF:0120 BC:6403 DE:0168 HL:0175 SP:dfcd
13f5  ld   a,($ffdf) AF:0120 BC:6403 DE:0168 HL:0175 SP:dfcd
13f7  and  a,a AF:0020 BC:6403 DE:0168 HL:0175 SP:dfcd
13f8  jr   z,$140e AF:00a0 BC:6403 DE:0168 HL:0175 SP:dfcd
140e  ld   hl,$c2a0 AF:00a0 BC:6403 DE:0168 HL:0175 SP:dfcd
1411  ld   sp,hl AF:00a0 BC:6403 DE:0168 HL:c2a0 SP:dfcd
1412  ld   a,($ffe1) AF:00a0 BC:6403 DE:0168 HL:c2a0 SP:c2a0
1414  ld   h,a AF:98a0 BC:6403 DE:0168 HL:c2a0 SP:c2a0
1415  ld   a,($ffe0) AF:98a0 BC:6403 DE:0168 HL:98a0 SP:c2a0
1417  ld   l,a AF:00a0 BC:6403 DE:0168 HL:98a0 SP:c2a0
1418  ld   a,$01 AF:00a0 BC:6403 DE:0168 HL:9800 SP:c2a0
141a  jr   $142c AF:01a0 BC:6403 DE:0168 HL:9800 SP:c2a0
142c  ld   ($ffdf),a AF:01a0 BC:6403 DE:0168 HL:9800 SP:c2a0
142e  ld   a,$06 AF:01a0 BC:6403 DE:0168 HL:9800 SP:c2a0
1430  ld   bc,$000d AF:06a0 BC:6403 DE:0168 HL:9800 SP:c2a0
1433  pop  de AF:06a0 BC:000d DE:0168 HL:9800 SP:c2a0
1434  ld   (hl),e AF:06a0 BC:000d DE:7f7f HL:9800 SP:c2a2
1435  inc  l AF:06a0 BC:000d DE:7f7f HL:9800 SP:c2a2
1436  ld   (hl),d AF:0600 BC:000d DE:7f7f HL:9801 SP:c2a2
1437  inc  l AF:0600 BC:000d DE:7f7f HL:9801 SP:c2a2
1438  pop  de AF:0600 BC:000d DE:7f7f HL:9802 SP:c2a2
1439  ld   (hl),e AF:0600 BC:000d DE:7f7f HL:9802 SP:c2a4
143a  inc  l AF:0600 BC:000d DE:7f7f HL:9802 SP:c2a4
143b  ld   (hl),d AF:0600 BC:000d DE:7f7f HL:9803 SP:c2a4
143c  inc  l AF:0600 BC:000d DE:7f7f HL:9803 SP:c2a4
143d  pop  de AF:0600 BC:000d DE:7f7f HL:9804 SP:c2a4
143e  ld   (hl),e AF:0600 BC:000d DE:7f7f HL:9804 SP:c2a6
143f  inc  l AF:0600 BC:000d DE:7f7f HL:9804 SP:c2a6
1440  ld   (hl),d AF:0600 BC:000d DE:7f7f HL:9805 SP:c2a6
1441  inc  l AF:0600 BC:000d DE:7f7f HL:9805 SP:c2a6
1442  pop  de AF:0600 BC:000d DE:7f7f HL:9806 SP:c2a6
1443  ld   (hl),e AF:0600 BC:000d DE:7f7f HL:9806 SP:c2a8
1444  inc  l AF:0600 BC:000d DE:7f7f HL:9806 SP:c2a8
1445  ld   (hl),d AF:0600 BC:000d DE:7f7f HL:9807 SP:c2a8
1446  inc  l AF:0600 BC:000d DE:7f7f HL:9807 SP:c2a8
1447  pop  de AF:0600 BC:000d DE:7f7f HL:9808 SP:c2a8
1448  ld   (hl),e AF:0600 BC:000d DE:7f7f HL:9808 SP:c2aa
1449  inc  l AF:0600 BC:000d DE:7f7f HL:9808 SP:c2aa
144a  ld   (hl),d AF:0600 BC:000d DE:7f7f HL:9809 SP:c2aa
144b  inc  l AF:0600 BC:000d DE:7f7f HL:9809 SP:c2aa
144c  pop  de AF:0600 BC:000d DE:7f7f HL:980a SP:c2aa
144d  ld   (hl),e AF:0600 BC:000d DE:607f HL:980a SP:c2ac
144e  inc  l AF:0600 BC:000d DE:607f HL:980a SP:c2ac
144f  ld   (hl),d AF:0600 BC:000d DE:607f HL:980b SP:c2ac
1450  inc  l AF:0600 BC:000d DE:607f HL:980b SP:c2ac
1451  pop  de AF:0600 BC:000d DE:607f HL:980c SP:c2ac
1452  ld   (hl),e AF:0600 BC:000d DE:6a61 HL:980c SP:c2ae
1453  inc  l AF:0600 BC:000d DE:6a61 HL:980c SP:c2ae
1454  ld   (hl),d AF:0600 BC:000d DE:6a61 HL:980d SP:c2ae
1455  inc  l AF:0600 BC:000d DE:6a61 HL:980d SP:c2ae
1456  pop  de AF:0600 BC:000d DE:6a61 HL:980e SP:c2ae
1457  ld   (hl),e AF:0600 BC:000d DE:6a6a HL:980e SP:c2b0
1458  inc  l AF:0600 BC:000d DE:6a6a HL:980e SP:c2b0
1459  ld   (hl),d AF:0600 BC:000d DE:6a6a HL:980f SP:c2b0
145a  inc  l AF:0600 BC:000d DE:6a6a HL:980f SP:c2b0
145b  pop  de AF:0620 BC:000d DE:6a6a HL:9810 SP:c2b0
145c  ld   (hl),e AF:0620 BC:000d DE:6a6a HL:9810 SP:c2b2
145d  inc  l AF:0620 BC:000d DE:6a6a HL:9810 SP:c2b2
145e  ld   (hl),d AF:0600 BC:000d DE:6a6a HL:9811 SP:c2b2
145f  inc  l AF:0600 BC:000d DE:6a6a HL:9811 SP:c2b2
1460  pop  de AF:0600 BC:000d DE:6a6a HL:9812 SP:c2b2
1461  ld   (hl),e AF:0600 BC:000d DE:6b6a HL:9812 SP:c2b4
1462  inc  l AF:0600 BC:000d DE:6b6a HL:9812 SP:c2b4
1463  ld   (hl),d AF:0600 BC:000d DE:6b6a HL:9813 SP:c2b4
1464  add  hl,bc AF:0600 BC:000d DE:6b6a HL:9813 SP:c2b4
1465  dec  a AF:0600 BC:000d DE:6b6a HL:9820 SP:c2b4
1466  jr   nz,$1433 AF:0540 BC:000d DE:6b6a HL:9820 SP:c2b4
1433  pop  de AF:0540 BC:000d DE:6b6a HL:9820 SP:c2b4
1434  ld   (hl),e AF:0540 BC:000d DE:7f7f HL:9820 SP:c2b6
1435  inc  l AF:0540 BC:000d DE:7f7f HL:9820 SP:c2b6
1436  ld   (hl),d AF:0500 BC:000d DE:7f7f HL:9821 SP:c2b6
1437  inc  l AF:0500 BC:000d DE:7f7f HL:9821 SP:c2b6
1438  pop  de AF:0500 BC:000d DE:7f7f HL:9822 SP:c2b6
1439  ld   (hl),e AF:0500 BC:000d DE:e67f HL:9822 SP:c2b8
143a  inc  l AF:0500 BC:000d DE:e67f HL:9822 SP:c2b8
143b  ld   (hl),d AF:0500 BC:000d DE:e67f HL:9823 SP:c2b8
143c  inc  l AF:0500 BC:000d DE:e67f HL:9823 SP:c2b8
143d  pop  de AF:0500 BC:000d DE:e67f HL:9824 SP:c2b8
143e  ld   (hl),e AF:0500 BC:000d DE:7f7f HL:9824 SP:c2ba
143f  inc  l AF:0500 BC:000d DE:7f7f HL:9824 SP:c2ba
1440  ld   (hl),d AF:0500 BC:000d DE:7f7f HL:9825 SP:c2ba
1441  inc  l AF:0500 BC:000d DE:7f7f HL:9825 SP:c2ba
1442  pop  de AF:0500 BC:000d DE:7f7f HL:9826 SP:c2ba
1443  ld   (hl),e AF:0500 BC:000d DE:7f7f HL:9826 SP:c2bc
1444  inc  l AF:0500 BC:000d DE:7f7f HL:9826 SP:c2bc
1445  ld   (hl),d AF:0500 BC:000d DE:7f7f HL:9827 SP:c2bc
1446  inc  l AF:0500 BC:000d DE:7f7f HL:9827 SP:c2bc
1447  pop  de AF:0500 BC:000d DE:7f7f HL:9828 SP:c2bc
1448  ld   (hl),e AF:0500 BC:000d DE:fe6e HL:9828 SP:c2be
1449  inc  l AF:0500 BC:000d DE:fe6e HL:9828 SP:c2be
144a  ld   (hl),d AF:0500 BC:000d DE:fe6e HL:9829 SP:c2be
144b  inc  l AF:0500 BC:000d DE:fe6e HL:9829 SP:c2be
144c  pop  de AF:0500 BC:000d DE:fe6e HL:982a SP:c2be
144d  ld   (hl),e AF:0500 BC:000d DE:7f7f HL:982a SP:c2c0
144e  inc  l AF:0500 BC:000d DE:7f7f HL:982a SP:c2c0
144f  ld   (hl),d AF:0500 BC:000d DE:7f7f HL:982b SP:c2c0
1450  inc  l AF:0500 BC:000d DE:7f7f HL:982b SP:c2c0
1451  pop  de AF:0500 BC:000d DE:7f7f HL:982c SP:c2c0
1452  ld   (hl),e AF:0500 BC:000d DE:f87f HL:982c SP:c2c2
1453  inc  l AF:0500 BC:000d DE:f87f HL:982c SP:c2c2
1454  ld   (hl),d AF:0500 BC:000d DE:f87f HL:982d SP:c2c2
1455  inc  l AF:0500 BC:000d DE:f87f HL:982d SP:c2c2
1456  pop  de AF:0500 BC:000d DE:f87f HL:982e SP:c2c2
1457  ld   (hl),e AF:0500 BC:000d DE:f3fc HL:982e SP:c2c4
1458  inc  l AF:0500 BC:000d DE:f3fc HL:982e SP:c2c4
1459  ld   (hl),d AF:0500 BC:000d DE:f3fc HL:982f SP:c2c4
145a  inc  l AF:0500 BC:000d DE:f3fc HL:982f SP:c2c4
145b  pop  de AF:0520 BC:000d DE:f3fc HL:9830 SP:c2c4
145c  ld   (hl),e AF:0520 BC:000d DE:f87f HL:9830 SP:c2c6
145d  inc  l AF:0520 BC:000d DE:f87f HL:9830 SP:c2c6
145e  ld   (hl),d AF:0500 BC:000d DE:f87f HL:9831 SP:c2c6
145f  inc  l AF:0500 BC:000d DE:f87f HL:9831 SP:c2c6
1460  pop  de AF:0500 BC:000d DE:f87f HL:9832 SP:c2c6
1461  ld   (hl),e AF:0500 BC:000d DE:7ffc HL:9832 SP:c2c8
1462  inc  l AF:0500 BC:000d DE:7ffc HL:9832 SP:c2c8
1463  ld   (hl),d AF:0500 BC:000d DE:7ffc HL:9833 SP:c2c8
1464  add  hl,bc AF:0500 BC:000d DE:7ffc HL:9833 SP:c2c8
1465  dec  a AF:0500 BC:000d DE:7ffc HL:9840 SP:c2c8
1466  jr   nz,$1433 AF:0440 BC:000d DE:7ffc HL:9840 SP:c2c8
1433  pop  de AF:0440 BC:000d DE:7ffc HL:9840 SP:c2c8
1434  ld   (hl),e AF:0440 BC:000d DE:7f7f HL:9840 SP:c2ca
1435  inc  l AF:0440 BC:000d DE:7f7f HL:9840 SP:c2ca
1436  ld   (hl),d AF:0400 BC:000d DE:7f7f HL:9841 SP:c2ca
1437  inc  l AF:0400 BC:000d DE:7f7f HL:9841 SP:c2ca
1438  pop  de AF:0400 BC:000d DE:7f7f HL:9842 SP:c2ca
1439  ld   (hl),e AF:0400 BC:000d DE:7f7f HL:9842 SP:c2cc
143a  inc  l AF:0400 BC:000d DE:7f7f HL:9842 SP:c2cc
143b  ld   (hl),d AF:0400 BC:000d DE:7f7f HL:9843 SP:c2cc
143c  inc  l AF:0400 BC:000d DE:7f7f HL:9843 SP:c2cc
143d  pop  de AF:0400 BC:000d DE:7f7f HL:9844 SP:c2cc
143e  ld   (hl),e AF:0400 BC:000d DE:7f7f HL:9844 SP:c2ce
143f  inc  l AF:0400 BC:000d DE:7f7f HL:9844 SP:c2ce
1440  ld   (hl),d AF:0400 BC:000d DE:7f7f HL:9845 SP:c2ce
1441  inc  l AF:0400 BC:000d DE:7f7f HL:9845 SP:c2ce
1442  pop  de AF:0400 BC:000d DE:7f7f HL:9846 SP:c2ce
1443  ld   (hl),e AF:0400 BC:000d DE:7f7f HL:9846 SP:c2d0
1444  inc  l AF:0400 BC:000d DE:7f7f HL:9846 SP:c2d0
1445  ld   (hl),d AF:0400 BC:000d DE:7f7f HL:9847 SP:c2d0
1446  inc  l AF:0400 BC:000d DE:7f7f HL:9847 SP:c2d0
1447  pop  de AF:0400 BC:000d DE:7f7f HL:9848 SP:c2d0
1448  ld   (hl),e AF:0400 BC:000d DE:decb HL:9848 SP:c2d2
1449  inc  l AF:0400 BC:000d DE:decb HL:9848 SP:c2d2
144a  ld   (hl),d AF:0400 BC:000d DE:decb HL:9849 SP:c2d2
144b  inc  l AF:0400 BC:000d DE:decb HL:9849 SP:c2d2
144c  pop  de AF:0400 BC:000d DE:decb HL:984a SP:c2d2
144d  ld   (hl),e AF:0400 BC:000d DE:60bc HL:984a SP:c2d4
144e  inc  l AF:0400 BC:000d DE:60bc HL:984a SP:c2d4
144f  ld   (hl),d AF:0400 BC:000d DE:60bc HL:984b SP:c2d4
1450  inc  l AF:0400 BC:000d DE:60bc HL:984b SP:c2d4
1451  pop  de AF:0400 BC:000d DE:60bc HL:984c SP:c2d4
1452  ld   (hl),e AF:0400 BC:000d DE:6261 HL:984c SP:c2d6
1453  inc  l AF:0400 BC:000d DE:6261 HL:984c SP:c2d6
1454  ld   (hl),d AF:0400 BC:000d DE:6261 HL:984d SP:c2d6
1455  inc  l AF:0400 BC:000d DE:6261 HL:984d SP:c2d6
1456  pop  de AF:0400 BC:000d DE:6261 HL:984e SP:c2d6
1457  ld   (hl),e AF:0400 BC:000d DE:6262 HL:984e SP:c2d8
1458  inc  l AF:0400 BC:000d DE:6262 HL:984e SP:c2d8
1459  ld   (hl),d AF:0400 BC:000d DE:6262 HL:984f SP:c2d8
145a  inc  l AF:0400 BC:000d DE:6262 HL:984f SP:c2d8
145b  pop  de AF:0420 BC:000d DE:6262 HL:9850 SP:c2d8
145c  ld   (hl),e AF:0420 BC:000d DE:6262 HL:9850 SP:c2da
145d  inc  l AF:0420 BC:000d DE:6262 HL:9850 SP:c2da
145e  ld   (hl),d AF:0400 BC:000d DE:6262 HL:9851 SP:c2da
145f  inc  l AF:0400 BC:000d DE:6262 HL:9851 SP:c2da
1460  pop  de AF:0400 BC:000d DE:6262 HL:9852 SP:c2da
1461  ld   (hl),e AF:0400 BC:000d DE:6b62 HL:9852 SP:c2dc
1462  inc  l AF:0400 BC:000d DE:6b62 HL:9852 SP:c2dc
1463  ld   (hl),d AF:0400 BC:000d DE:6b62 HL:9853 SP:c2dc
1464  add  hl,bc AF:0400 BC:000d DE:6b62 HL:9853 SP:c2dc
1465  dec  a AF:0400 BC:000d DE:6b62 HL:9860 SP:c2dc
1466  jr   nz,$1433 AF:0340 BC:000d DE:6b62 HL:9860 SP:c2dc
1433  pop  de AF:0340 BC:000d DE:6b62 HL:9860 SP:c2dc
1434  ld   (hl),e AF:0340 BC:000d DE:7fec HL:9860 SP:c2de
1435  inc  l AF:0340 BC:000d DE:7fec HL:9860 SP:c2de
1436  ld   (hl),d AF:0300 BC:000d DE:7fec HL:9861 SP:c2de
1437  inc  l AF:0300 BC:000d DE:7fec HL:9861 SP:c2de
1438  pop  de AF:0300 BC:000d DE:7fec HL:9862 SP:c2de
1439  ld   (hl),e AF:0300 BC:000d DE:e67f HL:9862 SP:c2e0
143a  inc  l AF:0300 BC:000d DE:e67f HL:9862 SP:c2e0
143b  ld   (hl),d AF:0300 BC:000d DE:e67f HL:9863 SP:c2e0
143c  inc  l AF:0300 BC:000d DE:e67f HL:9863 SP:c2e0
143d  pop  de AF:0300 BC:000d DE:e67f HL:9864 SP:c2e0
143e  ld   (hl),e AF:0300 BC:000d DE:7f7f HL:9864 SP:c2e2
143f  inc  l AF:0300 BC:000d DE:7f7f HL:9864 SP:c2e2
1440  ld   (hl),d AF:0300 BC:000d DE:7f7f HL:9865 SP:c2e2
1441  inc  l AF:0300 BC:000d DE:7f7f HL:9865 SP:c2e2
1442  pop  de AF:0300 BC:000d DE:7f7f HL:9866 SP:c2e2
1443  ld   (hl),e AF:0300 BC:000d DE:7f7f HL:9866 SP:c2e4
1444  inc  l AF:0300 BC:000d DE:7f7f HL:9866 SP:c2e4
1445  ld   (hl),d AF:0300 BC:000d DE:7f7f HL:9867 SP:c2e4
1446  inc  l AF:0300 BC:000d DE:7f7f HL:9867 SP:c2e4
1447  pop  de AF:0300 BC:000d DE:7f7f HL:9868 SP:c2e4
1448  ld   (hl),e AF:0300 BC:000d DE:f66e HL:9868 SP:c2e6
1449  inc  l AF:0300 BC:000d DE:f66e HL:9868 SP:c2e6
144a  ld   (hl),d AF:0300 BC:000d DE:f66e HL:9869 SP:c2e6
144b  inc  l AF:0300 BC:000d DE:f66e HL:9869 SP:c2e6
144c  pop  de AF:0300 BC:000d DE:f66e HL:986a SP:c2e6
144d  ld   (hl),e AF:0300 BC:000d DE:7f7f HL:986a SP:c2e8
144e  inc  l AF:0300 BC:000d DE:7f7f HL:986a SP:c2e8
144f  ld   (hl),d AF:0300 BC:000d DE:7f7f HL:986b SP:c2e8
1450  inc  l AF:0300 BC:000d DE:7f7f HL:986b SP:c2e8
1451  pop  de AF:0300 BC:000d DE:7f7f HL:986c SP:c2e8
1452  ld   (hl),e AF:0300 BC:000d DE:7f7f HL:986c SP:c2ea
1453  inc  l AF:0300 BC:000d DE:7f7f HL:986c SP:c2ea
1454  ld   (hl),d AF:0300 BC:000d DE:7f7f HL:986d SP:c2ea
1455  inc  l AF:0300 BC:000d DE:7f7f HL:986d SP:c2ea
1456  pop  de AF:0300 BC:000d DE:7f7f HL:986e SP:c2ea
1457  ld   (hl),e AF:0300 BC:000d DE:f3f6 HL:986e SP:c2ec
1458  inc  l AF:0300 BC:000d DE:f3f6 HL:986e SP:c2ec
1459  ld   (hl),d AF:0300 BC:000d DE:f3f6 HL:986f SP:c2ec
145a  inc  l AF:0300 BC:000d DE:f3f6 HL:986f SP:c2ec
145b  pop  de AF:0320 BC:000d DE:f3f6 HL:9870 SP:c2ec
145c  ld   (hl),e AF:0320 BC:000d DE:7f7f HL:9870 SP:c2ee
145d  inc  l AF:0320 BC:000d DE:7f7f HL:9870 SP:c2ee
145e  ld   (hl),d AF:0300 BC:000d DE:7f7f HL:9871 SP:c2ee
145f  inc  l AF:0300 BC:000d DE:7f7f HL:9871 SP:c2ee
1460  pop  de AF:0300 BC:000d DE:7f7f HL:9872 SP:c2ee
1461  ld   (hl),e AF:0300 BC:000d DE:7ff6 HL:9872 SP:c2f0
1462  inc  l AF:0300 BC:000d DE:7ff6 HL:9872 SP:c2f0
1463  ld   (hl),d AF:0300 BC:000d DE:7ff6 HL:9873 SP:c2f0
1464  add  hl,bc AF:0300 BC:000d DE:7ff6 HL:9873 SP:c2f0
1465  dec  a AF:0300 BC:000d DE:7ff6 HL:9880 SP:c2f0
1466  jr   nz,$1433 AF:0240 BC:000d DE:7ff6 HL:9880 SP:c2f0
1433  pop  de AF:0240 BC:000d DE:7ff6 HL:9880 SP:c2f0
1434  ld   (hl),e AF:0240 BC:000d DE:7f7f HL:9880 SP:c2f2
1435  inc  l AF:0240 BC:000d DE:7f7f HL:9880 SP:c2f2
1436  ld   (hl),d AF:0200 BC:000d DE:7f7f HL:9881 SP:c2f2
1437  inc  l AF:0200 BC:000d DE:7f7f HL:9881 SP:c2f2
1438  pop  de AF:0200 BC:000d DE:7f7f HL:9882 SP:c2f2
1439  ld   (hl),e AF:0200 BC:000d DE:7f7f HL:9882 SP:c2f4
143a  inc  l AF:0200 BC:000d DE:7f7f HL:9882 SP:c2f4
143b  ld   (hl),d AF:0200 BC:000d DE:7f7f HL:9883 SP:c2f4
143c  inc  l AF:0200 BC:000d DE:7f7f HL:9883 SP:c2f4
143d  pop  de AF:0200 BC:000d DE:7f7f HL:9884 SP:c2f4
143e  ld   (hl),e AF:0200 BC:000d DE:7a79 HL:9884 SP:c2f6
143f  inc  l AF:0200 BC:000d DE:7a79 HL:9884 SP:c2f6
1440  ld   (hl),d AF:0200 BC:000d DE:7a79 HL:9885 SP:c2f6
1441  inc  l AF:0200 BC:000d DE:7a79 HL:9885 SP:c2f6
1442  pop  de AF:0200 BC:000d DE:7a79 HL:9886 SP:c2f6
1443  ld   (hl),e AF:0200 BC:000d DE:7a7a HL:9886 SP:c2f8
1444  inc  l AF:0200 BC:000d DE:7a7a HL:9886 SP:c2f8
1445  ld   (hl),d AF:0200 BC:000d DE:7a7a HL:9887 SP:c2f8
1446  inc  l AF:0200 BC:000d DE:7a7a HL:9887 SP:c2f8
1447  pop  de AF:0200 BC:000d DE:7a7a HL:9888 SP:c2f8
1448  ld   (hl),e AF:0200 BC:000d DE:7a7a HL:9888 SP:c2fa
1449  inc  l AF:0200 BC:000d DE:7a7a HL:9888 SP:c2fa
144a  ld   (hl),d AF:0200 BC:000d DE:7a7a HL:9889 SP:c2fa
144b  inc  l AF:0200 BC:000d DE:7a7a HL:9889 SP:c2fa
144c  pop  de AF:0200 BC:000d DE:7a7a HL:988a SP:c2fa
144d  ld   (hl),e AF:0200 BC:000d DE:7a7a HL:988a SP:c2fc
144e  inc  l AF:0200 BC:000d DE:7a7a HL:988a SP:c2fc
144f  ld   (hl),d AF:0200 BC:000d DE:7a7a HL:988b SP:c2fc
1450  inc  l AF:0200 BC:000d DE:7a7a HL:988b SP:c2fc
1451  pop  de AF:0200 BC:000d DE:7a7a HL:988c SP:c2fc
1452  ld   (hl),e AF:0200 BC:000d DE:7a7a HL:988c SP:c2fe
1453  inc  l AF:0200 BC:000d DE:7a7a HL:988c SP:c2fe
1454  ld   (hl),d AF:0200 BC:000d DE:7a7a HL:988d SP:c2fe
1455  inc  l AF:0200 BC:000d DE:7a7a HL:988d SP:c2fe
1456  pop  de AF:0200 BC:000d DE:7a7a HL:988e SP:c2fe
1457  ld   (hl),e AF:0200 BC:000d DE:7f7b HL:988e SP:c300
1458  inc  l AF:0200 BC:000d DE:7f7b HL:988e SP:c300
1459  ld   (hl),d AF:0200 BC:000d DE:7f7b HL:988f SP:c300
145a  inc  l AF:0200 BC:000d DE:7f7b HL:988f SP:c300
145b  pop  de AF:0220 BC:000d DE:7f7b HL:9890 SP:c300
145c  ld   (hl),e AF:0220 BC:000d DE:7f7f HL:9890 SP:c302
145d  inc  l AF:0220 BC:000d DE:7f7f HL:9890 SP:c302
145e  ld   (hl),d AF:0200 BC:000d DE:7f7f HL:9891 SP:c302
145f  inc  l AF:0200 BC:000d DE:7f7f HL:9891 SP:c302
1460  pop  de AF:0200 BC:000d DE:7f7f HL:9892 SP:c302
1461  ld   (hl),e AF:0200 BC:000d DE:7f7f HL:9892 SP:c304
1462  inc  l AF:0200 BC:000d DE:7f7f HL:9892 SP:c304
1463  ld   (hl),d AF:0200 BC:000d DE:7f7f HL:9893 SP:c304
1464  add  hl,bc AF:0200 BC:000d DE:7f7f HL:9893 SP:c304
1465  dec  a AF:0200 BC:000d DE:7f7f HL:98a0 SP:c304
1466  jr   nz,$1433 AF:0140 BC:000d DE:7f7f HL:98a0 SP:c304
1433  pop  de AF:0140 BC:000d DE:7f7f HL:98a0 SP:c304
1434  ld   (hl),e AF:0140 BC:000d DE:7f7f HL:98a0 SP:c306
1435  inc  l AF:0140 BC:000d DE:7f7f HL:98a0 SP:c306
1436  ld   (hl),d AF:0100 BC:000d DE:7f7f HL:98a1 SP:c306
1437  inc  l AF:0100 BC:000d DE:7f7f HL:98a1 SP:c306
1438  pop  de AF:0100 BC:000d DE:7f7f HL:98a2 SP:c306
1439  ld   (hl),e AF:0100 BC:000d DE:7f7f HL:98a2 SP:c308
143a  inc  l AF:0100 BC:000d DE:7f7f HL:98a2 SP:c308
143b  ld   (hl),d AF:0100 BC:000d DE:7f7f HL:98a3 SP:c308
143c  inc  l AF:0100 BC:000d DE:7f7f HL:98a3 SP:c308
143d  pop  de AF:0100 BC:000d DE:7f7f HL:98a4 SP:c308
143e  ld   (hl),e AF:0100 BC:000d DE:7f7c HL:98a4 SP:c30a
143f  inc  l AF:0100 BC:000d DE:7f7c HL:98a4 SP:c30a
1440  ld   (hl),d AF:0100 BC:000d DE:7f7c HL:98a5 SP:c30a
1441  inc  l AF:0100 BC:000d DE:7f7c HL:98a5 SP:c30a
1442  pop  de AF:0100 BC:000d DE:7f7c HL:98a6 SP:c30a
1443  ld   (hl),e AF:0100 BC:000d DE:7f7f HL:98a6 SP:c30c
1444  inc  l AF:0100 BC:000d DE:7f7f HL:98a6 SP:c30c
1445  ld   (hl),d AF:0100 BC:000d DE:7f7f HL:98a7 SP:c30c
1446  inc  l AF:0100 BC:000d DE:7f7f HL:98a7 SP:c30c
1447  pop  de AF:0100 BC:000d DE:7f7f HL:98a8 SP:c30c
1448  ld   (hl),e AF:0100 BC:000d DE:7fe5 HL:98a8 SP:c30e
1449  inc  l AF:0100 BC:000d DE:7fe5 HL:98a8 SP:c30e
144a  ld   (hl),d AF:0100 BC:000d DE:7fe5 HL:98a9 SP:c30e
144b  inc  l AF:0100 BC:000d DE:7fe5 HL:98a9 SP:c30e
144c  pop  de AF:0100 BC:000d DE:7fe5 HL:98aa SP:c30e
144d  ld   (hl),e AF:0100 BC:000d DE:7f7f HL:98aa SP:c310
144e  inc  l AF:0100 BC:000d DE:7f7f HL:98aa SP:c310
144f  ld   (hl),d AF:0100 BC:000d DE:7f7f HL:98ab SP:c310
1450  inc  l AF:0100 BC:000d DE:7f7f HL:98ab SP:c310
1451  pop  de AF:0100 BC:000d DE:7f7f HL:98ac SP:c310
1452  ld   (hl),e AF:0100 BC:000d DE:7f7f HL:98ac SP:c312
1453  inc  l AF:0100 BC:000d DE:7f7f HL:98ac SP:c312
1454  ld   (hl),d AF:0100 BC:000d DE:7f7f HL:98ad SP:c312
1455  inc  l AF:0100 BC:000d DE:7f7f HL:98ad SP:c312
1456  pop  de AF:0100 BC:000d DE:7f7f HL:98ae SP:c312
1457  ld   (hl),e AF:0100 BC:000d DE:7f7c HL:98ae SP:c314
1458  inc  l AF:0100 BC:000d DE:7f7c HL:98ae SP:c314
1459  ld   (hl),d AF:0100 BC:000d DE:7f7c HL:98af SP:c314
145a  inc  l AF:0100 BC:000d DE:7f7c HL:98af SP:c314
145b  pop  de AF:0120 BC:000d DE:7f7c HL:98b0 SP:c314
145c  ld   (hl),e AF:0120 BC:000d DE:7f7f HL:98b0 SP:c316
145d  inc  l AF:0120 BC:000d DE:7f7f HL:98b0 SP:c316
145e  ld   (hl),d AF:0100 BC:000d DE:7f7f HL:98b1 SP:c316
145f  inc  l AF:0100 BC:000d DE:7f7f HL:98b1 SP:c316
1460  pop  de AF:0100 BC:000d DE:7f7f HL:98b2 SP:c316
1461  ld   (hl),e AF:0100 BC:000d DE:7f7f HL:98b2 SP:c318
1462  inc  l AF:0100 BC:000d DE:7f7f HL:98b2 SP:c318
1463  ld   (hl),d AF:0100 BC:000d DE:7f7f HL:98b3 SP:c318
1464  add  hl,bc AF:0100 BC:000d DE:7f7f HL:98b3 SP:c318
1465  dec  a AF:0100 BC:000d DE:7f7f HL:98c0 SP:c318
1466  jr   nz,$1433 AF:00c0 BC:000d DE:7f7f HL:98c0 SP:c318
1468  ld   a,($ffe3) AF:00c0 BC:000d DE:7f7f HL:98c0 SP:c318
146a  ld   l,a AF:cdc0 BC:000d DE:7f7f HL:98c0 SP:c318
146b  ld   a,($ffe4) AF:cdc0 BC:000d DE:7f7f HL:98cd SP:c318
146d  ld   h,a AF:dfc0 BC:000d DE:7f7f HL:98cd SP:c318
146e  ld   sp,hl AF:dfc0 BC:000d DE:7f7f HL:dfcd SP:c318
146f  ret AF:dfc0 BC:000d DE:7f7f HL:dfcd SP:dfcd
01b2  call $123a AF:dfc0 BC:000d DE:7f7f HL:dfcd SP:dfcf
123a  ld   a,($ffe5) AF:dfc0 BC:000d DE:7f7f HL:dfcd SP:dfcd
123c  and  a,a AF:00c0 BC:000d DE:7f7f HL:dfcd SP:dfcd
123d  ret  z AF:00a0 BC:000d DE:7f7f HL:dfcd SP:dfcd
01b5  call $14c7 AF:00a0 BC:000d DE:7f7f HL:dfcd SP:dfcf
14c7  ld   a,($cb62) AF:00a0 BC:000d DE:7f7f HL:dfcd SP:dfcd
14ca  and  a,a AF:00a0 BC:000d DE:7f7f HL:dfcd SP:dfcd
14cb  ret  z AF:00a0 BC:000d DE:7f7f HL:dfcd SP:dfcd
01b8  call $1470 AF:00a0 BC:000d DE:7f7f HL:dfcd SP:dfcf
1470  ld   a,($cb67) AF:00a0 BC:000d DE:7f7f HL:dfcd SP:dfcd
1473  and  a,a AF:00a0 BC:000d DE:7f7f HL:dfcd SP:dfcd
1474  ret  z AF:00a0 BC:000d DE:7f7f HL:dfcd SP:dfcd
01bb  call $1522 AF:00a0 BC:000d DE:7f7f HL:dfcd SP:dfcf
1522  ld   a,($ff98) AF:00a0 BC:000d DE:7f7f HL:dfcd SP:dfcd
1524  push af AF:04a0 BC:000d DE:7f7f HL:dfcd SP:dfcd
1525  ld   a,$23 AF:04a0 BC:000d DE:7f7f HL:dfcd SP:dfcb
1527  call $3286 AF:23a0 BC:000d DE:7f7f HL:dfcd SP:dfcb
3286  ld   ($ff98),a AF:23a0 BC:000d DE:7f7f HL:dfcd SP:dfc9
3288  ld   ($2000),a AF:23a0 BC:000d DE:7f7f HL:dfcd SP:dfc9
328b  ret AF:23a0 BC:000d DE:7f7f HL:dfcd SP:dfc9
152a  call $4000 AF:23a0 BC:000d DE:7f7f HL:dfcd SP:dfcb
4000  ld   a,($ffe8) AF:23a0 BC:000d DE:7f7f HL:dfcd SP:dfc9
4002  and  a,a AF:01a0 BC:000d DE:7f7f HL:dfcd SP:dfc9
4003  ret  z AF:0120 BC:000d DE:7f7f HL:dfcd SP:dfc9
4004  ld   a,($d6a6) AF:0120 BC:000d DE:7f7f HL:dfcd SP:dfc9
4007  ld   e,a AF:7720 BC:000d DE:7f7f HL:dfcd SP:dfc9
4008  ld   a,($d6a7) AF:7720 BC:000d DE:7f77 HL:dfcd SP:dfc9
400b  ld   d,a AF:4020 BC:000d DE:7f77 HL:dfcd SP:dfc9
400c  ld   a,($ffe9) AF:4020 BC:000d DE:4077 HL:dfcd SP:dfc9
400e  ld   l,a AF:0420 BC:000d DE:4077 HL:dfcd SP:dfc9
400f  inc  a AF:0420 BC:000d DE:4077 HL:df04 SP:dfc9
4010  ld   ($ffe9),a AF:0500 BC:000d DE:4077 HL:df04 SP:dfc9
4012  ld   h,$00 AF:0500 BC:000d DE:4077 HL:df04 SP:dfc9
4014  add  hl,hl AF:0500 BC:000d DE:4077 HL:0004 SP:dfc9
4015  add  hl,hl AF:0500 BC:000d DE:4077 HL:0008 SP:dfc9
4016  add  hl,de AF:0500 BC:000d DE:4077 HL:0010 SP:dfc9
4017  ld   e,(hl) AF:0500 BC:000d DE:4077 HL:4087 SP:dfc9
4018  inc  hl AF:0500 BC:000d DE:4030 HL:4087 SP:dfc9
4019  ld   d,(hl) AF:0500 BC:000d DE:4030 HL:4088 SP:dfc9
401a  inc  hl AF:0500 BC:000d DE:9030 HL:4088 SP:dfc9
401b  ldi  a,(hl) AF:0500 BC:000d DE:9030 HL:4089 SP:dfc9
401c  ld   h,(hl) AF:d400 BC:000d DE:9030 HL:408a SP:dfc9
401d  ld   l,a AF:d400 BC:000d DE:9030 HL:418a SP:dfc9
401e  jp   hl AF:d400 BC:000d DE:9030 HL:41d4 SP:dfc9
41d4  ld   hl,sp+$0000 AF:d400 BC:000d DE:9030 HL:41d4 SP:dfc9
41d6  ld   b,h AF:d400 BC:000d DE:9030 HL:dfc9 SP:dfc9
41d7  ld   c,l AF:d400 BC:df0d DE:9030 HL:dfc9 SP:dfc9
41d8  ld   h,d AF:d400 BC:dfc9 DE:9030 HL:dfc9 SP:dfc9
41d9  ld   l,e AF:d400 BC:dfc9 DE:9030 HL:90c9 SP:dfc9
41da  ld   sp,hl AF:d400 BC:dfc9 DE:9030 HL:9030 SP:dfc9
41db  ld   hl,$cb3c AF:d400 BC:dfc9 DE:9030 HL:9030 SP:9030
41de  pop  de AF:d400 BC:dfc9 DE:9030 HL:cb3c SP:9030
41df  ld   (hl),e AF:d400 BC:dfc9 DE:fc00 HL:cb3c SP:9032
41e0  inc  hl AF:d400 BC:dfc9 DE:fc00 HL:cb3c SP:9032
41e1  ld   (hl),d AF:d400 BC:dfc9 DE:fc00 HL:cb3d SP:9032
41e2  pop  de AF:d400 BC:dfc9 DE:fc00 HL:cb3d SP:9032
41e3  inc  hl AF:d400 BC:dfc9 DE:7e00 HL:cb3d SP:9034
41e4  ld   (hl),e AF:d400 BC:dfc9 DE:7e00 HL:cb3e SP:9034
41e5  inc  hl AF:d400 BC:dfc9 DE:7e00 HL:cb3e SP:9034
41e6  ld   (hl),d AF:d400 BC:dfc9 DE:7e00 HL:cb3f SP:9034
41e7  pop  de AF:d400 BC:dfc9 DE:7e00 HL:cb3f SP:9034
41e8  inc  hl AF:d400 BC:dfc9 DE:9f00 HL:cb3f SP:9036
41e9  ld   (hl),e AF:d400 BC:dfc9 DE:9f00 HL:cb40 SP:9036
41ea  inc  hl AF:d400 BC:dfc9 DE:9f00 HL:cb40 SP:9036
41eb  ld   (hl),d AF:d400 BC:dfc9 DE:9f00 HL:cb41 SP:9036
41ec  pop  de AF:d400 BC:dfc9 DE:9f00 HL:cb41 SP:9036
41ed  inc  hl AF:d400 BC:dfc9 DE:4f80 HL:cb41 SP:9038
41ee  ld   (hl),e AF:d400 BC:dfc9 DE:4f80 HL:cb42 SP:9038
41ef  inc  hl AF:d400 BC:dfc9 DE:4f80 HL:cb42 SP:9038
41f0  ld   (hl),d AF:d400 BC:dfc9 DE:4f80 HL:cb43 SP:9038
41f1  pop  de AF:d400 BC:dfc9 DE:4f80 HL:cb43 SP:9038
41f2  inc  hl AF:d400 BC:dfc9 DE:af40 HL:cb43 SP:903a
41f3  ld   (hl),e AF:d400 BC:dfc9 DE:af40 HL:cb44 SP:903a
41f4  inc  hl AF:d400 BC:dfc9 DE:af40 HL:cb44 SP:903a
41f5  ld   (hl),d AF:d400 BC:dfc9 DE:af40 HL:cb45 SP:903a
41f6  pop  de AF:d400 BC:dfc9 DE:af40 HL:cb45 SP:903a
41f7  inc  hl AF:d400 BC:dfc9 DE:d720 HL:cb45 SP:903c
41f8  ld   (hl),e AF:d400 BC:dfc9 DE:d720 HL:cb46 SP:903c
41f9  inc  hl AF:d400 BC:dfc9 DE:d720 HL:cb46 SP:903c
41fa  ld   (hl),d AF:d400 BC:dfc9 DE:d720 HL:cb47 SP:903c
41fb  pop  de AF:d400 BC:dfc9 DE:d720 HL:cb47 SP:903c
41fc  inc  hl AF:d400 BC:dfc9 DE:f300 HL:cb47 SP:903e
41fd  ld   (hl),e AF:d400 BC:dfc9 DE:f300 HL:cb48 SP:903e
41fe  inc  hl AF:d400 BC:dfc9 DE:f300 HL:cb48 SP:903e
41ff  ld   (hl),d AF:d400 BC:dfc9 DE:f300 HL:cb49 SP:903e
4200  pop  de AF:d400 BC:dfc9 DE:f300 HL:cb49 SP:903e
4201  inc  hl AF:d400 BC:dfc9 DE:fb00 HL:cb49 SP:9040
4202  ld   (hl),e AF:d400 BC:dfc9 DE:fb00 HL:cb4a SP:9040
4203  inc  hl AF:d400 BC:dfc9 DE:fb00 HL:cb4a SP:9040
4204  ld   (hl),d AF:d400 BC:dfc9 DE:fb00 HL:cb4b SP:9040
4205  ld   h,b AF:d400 BC:dfc9 DE:fb00 HL:cb4b SP:9040
4206  ld   l,c AF:d400 BC:dfc9 DE:fb00 HL:df4b SP:9040
4207  ld   sp,hl AF:d400 BC:dfc9 DE:fb00 HL:dfc9 SP:9040
4208  ret AF:d400 BC:dfc9 DE:fb00 HL:dfc9 SP:dfc9
152d  pop  af AF:d400 BC:dfc9 DE:fb00 HL:dfc9 SP:dfcb
152e  jp   $3286 AF:04a0 BC:dfc9 DE:fb00 HL:dfc9 SP:dfcd
3286  ld   ($ff98),a AF:04a0 BC:dfc9 DE:fb00 HL:dfc9 SP:dfcd
3288  ld   ($2000),a AF:04a0 BC:dfc9 DE:fb00 HL:dfc9 SP:dfcd
328b  ret AF:04a0 BC:dfc9 DE:fb00 HL:dfc9 SP:dfcd
01be  call $1558 AF:04a0 BC:dfc9 DE:fb00 HL:dfc9 SP:dfcf
1558  ld   a,($cb71) AF:04a0 BC:dfc9 DE:fb00 HL:dfc9 SP:dfcd
155b  and  a,a AF:00a0 BC:dfc9 DE:fb00 HL:dfc9 SP:dfcd
155c  ret  z AF:00a0 BC:dfc9 DE:fb00 HL:dfc9 SP:dfcd
01c1  call $1531 AF:00a0 BC:dfc9 DE:fb00 HL:dfc9 SP:dfcf
1531  nop AF:00a0 BC:dfc9 DE:fb00 HL:dfc9 SP:dfcd
1532  ld   hl,$ff40 AF:00a0 BC:dfc9 DE:fb00 HL:dfc9 SP:dfcd
1535  set  1,(hl) AF:00a0 BC:dfc9 DE:fb00 HL:ff40 SP:dfcd
1537  ret AF:00a0 BC:dfc9 DE:fb00 HL:ff40 SP:dfcd
01c4  call $ff80 AF:00a0 BC:dfc9 DE:fb00 HL:ff40 SP:dfcf
ff80  ld   a,$c2 AF:00a0 BC:dfc9 DE:fb00 HL:ff40 SP:dfcd
ff82  ld   ($ff46),a AF:c2a0 BC:dfc9 DE:fb00 HL:ff40 SP:dfcd
ff84  ld   a,$28 AF:c2a0 BC:dfc9 DE:fb00 HL:ff40 SP:dfcd
ff86  dec  a AF:28a0 BC:dfc9 DE:fb00 HL:ff40 SP:dfcd
ff87  jr   nz,$ff86 AF:2740 BC:dfc9 DE:fb00 HL:ff40 SP:dfcd
ff86  dec  a AF:2740 BC:dfc9 DE:fb00 HL:ff40 SP:dfcd
ff87  jr   nz,$ff86 AF:2640 BC:dfc9 DE:fb00 HL:ff40 SP:dfcd
ff86  dec  a AF:2640 BC:dfc9 DE:fb00 HL:ff40 SP:dfcd
ff87  jr   nz,$ff86 AF:2540 BC:dfc9 DE:fb00 HL:ff40 SP:dfcd
ff86  dec  a AF:2540 BC:dfc9 DE:fb00 HL:ff40 SP:dfcd
ff87  jr   nz,$ff86 AF:2440 BC:dfc9 DE:fb00 HL:ff40 SP:dfcd
ff86  dec  a AF:2440 BC:dfc9 DE:fb00 HL:ff40 SP:dfcd
ff87  jr   nz,$ff86 AF:2340 BC:dfc9 DE:fb00 HL:ff40 SP:dfcd
ff86  dec  a AF:2340 BC:dfc9 DE:fb00 HL:ff40 SP:dfcd
ff87  jr   nz,$ff86 AF:2240 BC:dfc9 DE:fb00 HL:ff40 SP:dfcd
ff86  dec  a AF:2240 BC:dfc9 DE:fb00 HL:ff40 SP:dfcd
ff87  jr   nz,$ff86 AF:2140 BC:dfc9 DE:fb00 HL:ff40 SP:dfcd
ff86  dec  a AF:2140 BC:dfc9 DE:fb00 HL:ff40 SP:dfcd
ff87  jr   nz,$ff86 AF:2040 BC:dfc9 DE:fb00 HL:ff40 SP:dfcd
ff86  dec  a AF:2040 BC:dfc9 DE:fb00 HL:ff40 SP:dfcd
ff87  jr   nz,$ff86 AF:1f60 BC:dfc9 DE:fb00 HL:ff40 SP:dfcd
ff86  dec  a AF:1f60 BC:dfc9 DE:fb00 HL:ff40 SP:dfcd
ff87  jr   nz,$ff86 AF:1e40 BC:dfc9 DE:fb00 HL:ff40 SP:dfcd
ff86  dec  a AF:1e40 BC:dfc9 DE:fb00 HL:ff40 SP:dfcd
ff87  jr   nz,$ff86 AF:1d40 BC:dfc9 DE:fb00 HL:ff40 SP:dfcd
ff86  dec  a AF:1d40 BC:dfc9 DE:fb00 HL:ff40 SP:dfcd
ff87  jr   nz,$ff86 AF:1c40 BC:dfc9 DE:fb00 HL:ff40 SP:dfcd
ff86  dec  a AF:1c40 BC:dfc9 DE:fb00 HL:ff40 SP:dfcd
ff87  jr   nz,$ff86 AF:1b40 BC:dfc9 DE:fb00 HL:ff40 SP:dfcd
ff86  dec  a AF:1b40 BC:dfc9 DE:fb00 HL:ff40 SP:dfcd
ff87  jr   nz,$ff86 AF:1a40 BC:dfc9 DE:fb00 HL:ff40 SP:dfcd
ff86  dec  a AF:1a40 BC:dfc9 DE:fb00 HL:ff40 SP:dfcd
ff87  jr   nz,$ff86 AF:1940 BC:dfc9 DE:fb00 HL:ff40 SP:dfcd
ff86  dec  a AF:1940 BC:dfc9 DE:fb00 HL:ff40 SP:dfcd
ff87  jr   nz,$ff86 AF:1840 BC:dfc9 DE:fb00 HL:ff40 SP:dfcd
ff86  dec  a AF:1840 BC:dfc9 DE:fb00 HL:ff40 SP:dfcd
ff87  jr   nz,$ff86 AF:1740 BC:dfc9 DE:fb00 HL:ff40 SP:dfcd
ff86  dec  a AF:1740 BC:dfc9 DE:fb00 HL:ff40 SP:dfcd
ff87  jr   nz,$ff86 AF:1640 BC:dfc9 DE:fb00 HL:ff40 SP:dfcd
ff86  dec  a AF:1640 BC:dfc9 DE:fb00 HL:ff40 SP:dfcd
ff87  jr   nz,$ff86 AF:1540 BC:dfc9 DE:fb00 HL:ff40 SP:dfcd
ff86  dec  a AF:1540 BC:dfc9 DE:fb00 HL:ff40 SP:dfcd
ff87  jr   nz,$ff86 AF:1440 BC:dfc9 DE:fb00 HL:ff40 SP:dfcd
ff86  dec  a AF:1440 BC:dfc9 DE:fb00 HL:ff40 SP:dfcd
ff87  jr   nz,$ff86 AF:1340 BC:dfc9 DE:fb00 HL:ff40 SP:dfcd
ff86  dec  a AF:1340 BC:dfc9 DE:fb00 HL:ff40 SP:dfcd
ff87  jr   nz,$ff86 AF:1240 BC:dfc9 DE:fb00 HL:ff40 SP:dfcd
ff86  dec  a AF:1240 BC:dfc9 DE:fb00 HL:ff40 SP:dfcd
ff87  jr   nz,$ff86 AF:1140 BC:dfc9 DE:fb00 HL:ff40 SP:dfcd
ff86  dec  a AF:1140 BC:dfc9 DE:fb00 HL:ff40 SP:dfcd
ff87  jr   nz,$ff86 AF:1040 BC:dfc9 DE:fb00 HL:ff40 SP:dfcd
ff86  dec  a AF:1040 BC:dfc9 DE:fb00 HL:ff40 SP:dfcd
ff87  jr   nz,$ff86 AF:0f60 BC:dfc9 DE:fb00 HL:ff40 SP:dfcd
ff86  dec  a AF:0f60 BC:dfc9 DE:fb00 HL:ff40 SP:dfcd
ff87  jr   nz,$ff86 AF:0e40 BC:dfc9 DE:fb00 HL:ff40 SP:dfcd
ff86  dec  a AF:0e40 BC:dfc9 DE:fb00 HL:ff40 SP:dfcd
ff87  jr   nz,$ff86 AF:0d40 BC:dfc9 DE:fb00 HL:ff40 SP:dfcd
ff86  dec  a AF:0d40 BC:dfc9 DE:fb00 HL:ff40 SP:dfcd
ff87  jr   nz,$ff86 AF:0c40 BC:dfc9 DE:fb00 HL:ff40 SP:dfcd
ff86  dec  a AF:0c40 BC:dfc9 DE:fb00 HL:ff40 SP:dfcd
ff87  jr   nz,$ff86 AF:0b40 BC:dfc9 DE:fb00 HL:ff40 SP:dfcd
ff86  dec  a AF:0b40 BC:dfc9 DE:fb00 HL:ff40 SP:dfcd
ff87  jr   nz,$ff86 AF:0a40 BC:dfc9 DE:fb00 HL:ff40 SP:dfcd
ff86  dec  a AF:0a40 BC:dfc9 DE:fb00 HL:ff40 SP:dfcd
ff87  jr   nz,$ff86 AF:0940 BC:dfc9 DE:fb00 HL:ff40 SP:dfcd
ff86  dec  a AF:0940 BC:dfc9 DE:fb00 HL:ff40 SP:dfcd
ff87  jr   nz,$ff86 AF:0840 BC:dfc9 DE:fb00 HL:ff40 SP:dfcd
ff86  dec  a AF:0840 BC:dfc9 DE:fb00 HL:ff40 SP:dfcd
ff87  jr   nz,$ff86 AF:0740 BC:dfc9 DE:fb00 HL:ff40 SP:dfcd
ff86  dec  a AF:0740 BC:dfc9 DE:fb00 HL:ff40 SP:dfcd
ff87  jr   nz,$ff86 AF:0640 BC:dfc9 DE:fb00 HL:ff40 SP:dfcd
ff86  dec  a AF:0640 BC:dfc9 DE:fb00 HL:ff40 SP:dfcd
ff87  jr   nz,$ff86 AF:0540 BC:dfc9 DE:fb00 HL:ff40 SP:dfcd
ff86  dec  a AF:0540 BC:dfc9 DE:fb00 HL:ff40 SP:dfcd
ff87  jr   nz,$ff86 AF:0440 BC:dfc9 DE:fb00 HL:ff40 SP:dfcd
ff86  dec  a AF:0440 BC:dfc9 DE:fb00 HL:ff40 SP:dfcd
ff87  jr   nz,$ff86 AF:0340 BC:dfc9 DE:fb00 HL:ff40 SP:dfcd
ff86  dec  a AF:0340 BC:dfc9 DE:fb00 HL:ff40 SP:dfcd
ff87  jr   nz,$ff86 AF:0240 BC:dfc9 DE:fb00 HL:ff40 SP:dfcd
ff86  dec  a AF:0240 BC:dfc9 DE:fb00 HL:ff40 SP:dfcd
ff87  jr   nz,$ff86 AF:0140 BC:dfc9 DE:fb00 HL:ff40 SP:dfcd
ff86  dec  a AF:0140 BC:dfc9 DE:fb00 HL:ff40 SP:dfcd
ff87  jr   nz,$ff86 AF:00c0 BC:dfc9 DE:fb00 HL:ff40 SP:dfcd
ff89  ret AF:00c0 BC:dfc9 DE:fb00 HL:ff40 SP:dfcd
01c7  xor  a,a AF:00c0 BC:dfc9 DE:fb00 HL:ff40 SP:dfcf
01c8  ld   ($cc33),a AF:0080 BC:dfc9 DE:fb00 HL:ff40 SP:dfcf
01cb  ld   a,($cc32) AF:0080 BC:dfc9 DE:fb00 HL:ff40 SP:dfcf
01ce  and  a,a AF:0f80 BC:dfc9 DE:fb00 HL:ff40 SP:dfcf
01cf  jr   z,$01d5 AF:0f20 BC:dfc9 DE:fb00 HL:ff40 SP:dfcf
01d1  dec  a AF:0f20 BC:dfc9 DE:fb00 HL:ff40 SP:dfcf
01d2  ld   ($cc32),a AF:0e40 BC:dfc9 DE:fb00 HL:ff40 SP:dfcf
01d5  call $07fe AF:0e40 BC:dfc9 DE:fb00 HL:ff40 SP:dfcf
07fe  ld   a,($d4ab) AF:0e40 BC:dfc9 DE:fb00 HL:ff40 SP:dfcd
0801  and  a,$d0 AF:0040 BC:dfc9 DE:fb00 HL:ff40 SP:dfcd
0803  ret  nz AF:00a0 BC:dfc9 DE:fb00 HL:ff40 SP:dfcd
0804  ld   a,$20 AF:00a0 BC:dfc9 DE:fb00 HL:ff40 SP:dfcd
0806  ld   ($ff00),a AF:20a0 BC:dfc9 DE:fb00 HL:ff40 SP:dfcd
0808  ld   a,($ff00) AF:20a0 BC:dfc9 DE:fb00 HL:ff40 SP:dfcd
080a  ld   a,($ff00) AF:2fa0 BC:dfc9 DE:fb00 HL:ff40 SP:dfcd
080c  cpl AF:2fa0 BC:dfc9 DE:fb00 HL:ff40 SP:dfcd
080d  and  a,$0f AF:d0e0 BC:dfc9 DE:fb00 HL:ff40 SP:dfcd
080f  swap a AF:00a0 BC:dfc9 DE:fb00 HL:ff40 SP:dfcd
0811  ld   b,a AF:0080 BC:dfc9 DE:fb00 HL:ff40 SP:dfcd
0812  ld   a,$10 AF:0080 BC:00c9 DE:fb00 HL:ff40 SP:dfcd
0814  ld   ($ff00),a AF:1080 BC:00c9 DE:fb00 HL:ff40 SP:dfcd
0816  ld   a,($ff00) AF:1080 BC:00c9 DE:fb00 HL:ff40 SP:dfcd
0818  ld   a,($ff00) AF:1f80 BC:00c9 DE:fb00 HL:ff40 SP:dfcd
081a  ld   a,($ff00) AF:1f80 BC:00c9 DE:fb00 HL:ff40 SP:dfcd
081c  ld   a,($ff00) AF:1f80 BC:00c9 DE:fb00 HL:ff40 SP:dfcd
081e  ld   a,($ff00) AF:1f80 BC:00c9 DE:fb00 HL:ff40 SP:dfcd
0820  ld   a,($ff00) AF:1f80 BC:00c9 DE:fb00 HL:ff40 SP:dfcd
0822  cpl AF:1f80 BC:00c9 DE:fb00 HL:ff40 SP:dfcd
0823  and  a,$0f AF:e0e0 BC:00c9 DE:fb00 HL:ff40 SP:dfcd
0825  or   a,b AF:00a0 BC:00c9 DE:fb00 HL:ff40 SP:dfcd
0826  ld   b,a AF:0080 BC:00c9 DE:fb00 HL:ff40 SP:dfcd
0827  ld   a,$30 AF:0080 BC:00c9 DE:fb00 HL:ff40 SP:dfcd
0829  ld   ($ff00),a AF:3080 BC:00c9 DE:fb00 HL:ff40 SP:dfcd
082b  ld   a,($ff9f) AF:3080 BC:00c9 DE:fb00 HL:ff40 SP:dfcd
082d  ld   e,a AF:0180 BC:00c9 DE:fb00 HL:ff40 SP:dfcd
082e  xor  a,b AF:0180 BC:00c9 DE:fb01 HL:ff40 SP:dfcd
082f  ld   d,a AF:0100 BC:00c9 DE:fb01 HL:ff40 SP:dfcd
0830  and  a,e AF:0100 BC:00c9 DE:0101 HL:ff40 SP:dfcd
0831  ld   ($ff9d),a AF:0120 BC:00c9 DE:0101 HL:ff40 SP:dfcd
0833  ld   a,d AF:0120 BC:00c9 DE:0101 HL:ff40 SP:dfcd
0834  and  a,b AF:0120 BC:00c9 DE:0101 HL:ff40 SP:dfcd
0835  ld   ($ff9e),a AF:00a0 BC:00c9 DE:0101 HL:ff40 SP:dfcd
0837  ld   c,a AF:00a0 BC:00c9 DE:0101 HL:ff40 SP:dfcd
0838  ld   a,($ffa0) AF:00a0 BC:0000 DE:0101 HL:ff40 SP:dfcd
083a  or   a,c AF:c3a0 BC:0000 DE:0101 HL:ff40 SP:dfcd
083b  ld   ($ffa0),a AF:c300 BC:0000 DE:0101 HL:ff40 SP:dfcd
083d  ld   a,b AF:c300 BC:0000 DE:0101 HL:ff40 SP:dfcd
083e  ld   ($ff9f),a AF:0000 BC:0000 DE:0101 HL:ff40 SP:dfcd
0840  ld   ($ffa6),a AF:0000 BC:0000 DE:0101 HL:ff40 SP:dfcd
0842  and  a,$0f AF:0000 BC:0000 DE:0101 HL:ff40 SP:dfcd
0844  cp   a,$0f AF:00a0 BC:0000 DE:0101 HL:ff40 SP:dfcd
0846  jp   z,$051c AF:0070 BC:0000 DE:0101 HL:ff40 SP:dfcd
0849  ret AF:0070 BC:0000 DE:0101 HL:ff40 SP:dfcd
01d8  xor  a,a AF:0070 BC:0000 DE:0101 HL:ff40 SP:dfcf
01d9  ld   ($ff0f),a AF:0080 BC:0000 DE:0101 HL:ff40 SP:dfcf
01db  ld   a,$0a AF:0080 BC:0000 DE:0101 HL:ff40 SP:dfcf
01dd  ld   ($ffff),a AF:0a80 BC:0000 DE:0101 HL:ff40 SP:dfcf
01df  ld   a,$02 AF:0a80 BC:0000 DE:0101 HL:ff40 SP:dfcf
01e1  ld   ($ff0f),a AF:0280 BC:0000 DE:0101 HL:ff40 SP:dfcf
01e3  ei AF:0280 BC:0000 DE:0101 HL:ff40 SP:dfcf
01e4  call $3c9f AF:0280 BC:0000 DE:0101 HL:ff40 SP:dfcf
3c9f  push hl AF:0280 BC:0000 DE:0101 HL:ff40 SP:dfcd
03ae  push af AF:0280 BC:0000 DE:0101 HL:ff40 SP:dfcb
03af  ld   a,($ffd0) AF:0280 BC:0000 DE:0101 HL:ff40 SP:dfc9
03b1  and  a,a AF:0080 BC:0000 DE:0101 HL:ff40 SP:dfc9
03b2  jr   z,$03df AF:00a0 BC:0000 DE:0101 HL:ff40 SP:dfc9
03df  pop  af AF:00a0 BC:0000 DE:0101 HL:ff40 SP:dfc9
03e0  reti AF:0280 BC:0000 DE:0101 HL:ff40 SP:dfcb
3c9f  push hl AF:0280 BC:0000 DE:0101 HL:ff40 SP:dfcd
03ae  push af AF:0280 BC:0000 DE:0101 HL:ff40 SP:dfcb
03af  ld   a,($ffd0) AF:0280 BC:0000 DE:0101 HL:ff40 SP:dfc9
03b1  and  a,a AF:0080 BC:0000 DE:0101 HL:ff40 SP:dfc9
03b2  jr   z,$03df AF:00a0 BC:0000 DE:0101 HL:ff40 SP:dfc9
03df  pop  af AF:00a0 BC:0000 DE:0101 HL:ff40 SP:dfc9
03e0  reti AF:0280 BC:0000 DE:0101 HL:ff40 SP:dfcb
3c9f  push hl AF:0280 BC:0000 DE:0101 HL:ff40 SP:dfcd
3ca0  push de AF:0280 BC:0000 DE:0101 HL:ff40 SP:dfcb
3ca1  push bc AF:0280 BC:0000 DE:0101 HL:ff40 SP:dfc9
3ca2  push af AF:0280 BC:0000 DE:0101 HL:ff40 SP:dfc7
3ca3  ld   a,($ff98) AF:0280 BC:0000 DE:0101 HL:ff40 SP:dfc5
3ca5  push af AF:0480 BC:0000 DE:0101 HL:ff40 SP:dfc5
3ca6  ld   a,$3a AF:0480 BC:0000 DE:0101 HL:ff40 SP:dfc3
3ca8  ld   ($2000),a AF:3a80 BC:0000 DE:0101 HL:ff40 SP:dfc3
3cab  ld   ($ff98),a AF:3a80 BC:0000 DE:0101 HL:ff40 SP:dfc3
3cad  call $4037 AF:3a80 BC:0000 DE:0101 HL:ff40 SP:dfc3
4037  xor  a,a AF:3a80 BC:0000 DE:0101 HL:ff40 SP:dfc1
4038  ld   ($c198),a AF:0080 BC:0000 DE:0101 HL:ff40 SP:dfc1
403b  ld   ($c19a),a AF:0080 BC:0000 DE:0101 HL:ff40 SP:dfc1
403e  ld   bc,$c000 AF:0080 BC:0000 DE:0101 HL:ff40 SP:dfc1
4041  ld   hl,$0003 AF:0080 BC:c000 DE:0101 HL:ff40 SP:dfc1
4044  add  hl,bc AF:0080 BC:c000 DE:0101 HL:0003 SP:dfc1
4045  bit  0,(hl) AF:0080 BC:c000 DE:0101 HL:c003 SP:dfc1
4047  jr   z,$404c AF:0020 BC:c000 DE:0101 HL:c003 SP:dfc1
4049  call $4061 AF:0020 BC:c000 DE:0101 HL:c003 SP:dfc1
4061  ld   hl,$0015 AF:0020 BC:c000 DE:0101 HL:c003 SP:dfbf
4064  add  hl,bc AF:0020 BC:c000 DE:0101 HL:0015 SP:dfbf
4065  ld   a,(hl) AF:0000 BC:c000 DE:0101 HL:c015 SP:dfbf
4066  cp   a,$01 AF:0200 BC:c000 DE:0101 HL:c015 SP:dfbf
4068  jr   z,$4070 AF:0240 BC:c000 DE:0101 HL:c015 SP:dfbf
406a  and  a,a AF:0240 BC:c000 DE:0101 HL:c015 SP:dfbf
406b  jr   z,$4070 AF:0220 BC:c000 DE:0101 HL:c015 SP:dfbf
406d  dec  (hl) AF:0220 BC:c000 DE:0101 HL:c015 SP:dfbf
03ae  push af AF:0220 BC:c000 DE:0101 HL:c015 SP:dfbd
03af  ld   a,($ffd0) AF:0220 BC:c000 DE:0101 HL:c015 SP:dfbb
03b1  and  a,a AF:0020 BC:c000 DE:0101 HL:c015 SP:dfbb
03b2  jr   z,$03df AF:00a0 BC:c000 DE:0101 HL:c015 SP:dfbb
03df  pop  af AF:00a0 BC:c000 DE:0101 HL:c015 SP:dfbb
03e0  reti AF:0220 BC:c000 DE:0101 HL:c015 SP:dfbd
406d  dec  (hl) AF:0220 BC:c000 DE:0101 HL:c015 SP:dfbf
406e  jr   $4076 AF:0240 BC:c000 DE:0101 HL:c015 SP:dfbf
4076  call $40b6 AF:0240 BC:c000 DE:0101 HL:c015 SP:dfbf
40b6  ld   hl,$000e AF:0240 BC:c000 DE:0101 HL:c015 SP:dfbd
40b9  add  hl,bc AF:0240 BC:c000 DE:0101 HL:000e SP:dfbd
40ba  ld   a,(hl) AF:0200 BC:c000 DE:0101 HL:c00e SP:dfbd
40bb  ld   ($c191),a AF:8000 BC:c000 DE:0101 HL:c00e SP:dfbd
40be  ld   hl,$000f AF:8000 BC:c000 DE:0101 HL:c00e SP:dfbd
40c1  add  hl,bc AF:8000 BC:c000 DE:0101 HL:000f SP:dfbd
40c2  ld   a,(hl) AF:8000 BC:c000 DE:0101 HL:c00f SP:dfbd
40c3  ld   ($c192),a AF:a100 BC:c000 DE:0101 HL:c00f SP:dfbd
40c6  ld   hl,$0010 AF:a100 BC:c000 DE:0101 HL:c00f SP:dfbd
40c9  add  hl,bc AF:a100 BC:c000 DE:0101 HL:0010 SP:dfbd
40ca  ldi  a,(hl) AF:a100 BC:c000 DE:0101 HL:c010 SP:dfbd
40cb  ld   ($c193),a AF:d600 BC:c000 DE:0101 HL:c011 SP:dfbd
40ce  ld   a,(hl) AF:d600 BC:c000 DE:0101 HL:c011 SP:dfbd
40cf  ld   ($c194),a AF:0600 BC:c000 DE:0101 HL:c011 SP:dfbd
40d2  ld   a,$3f AF:0600 BC:c000 DE:0101 HL:c011 SP:dfbd
40d4  ld   ($c195),a AF:3f00 BC:c000 DE:0101 HL:c011 SP:dfbd
40d7  call $45d8 AF:3f00 BC:c000 DE:0101 HL:c011 SP:dfbd
45d8  ld   hl,$0004 AF:3f00 BC:c000 DE:0101 HL:c011 SP:dfbb
45db  add  hl,bc AF:3f00 BC:c000 DE:0101 HL:0004 SP:dfbb
45dc  bit  2,(hl) AF:3f00 BC:c000 DE:0101 HL:c004 SP:dfbb
45de  call nz,$4605 AF:3fa0 BC:c000 DE:0101 HL:c004 SP:dfbb
45e1  bit  6,(hl) AF:3fa0 BC:c000 DE:0101 HL:c004 SP:dfbb
45e3  call nz,$472b AF:3fa0 BC:c000 DE:0101 HL:c004 SP:dfbb
45e6  bit  4,(hl) AF:3fa0 BC:c000 DE:0101 HL:c004 SP:dfbb
45e8  call nz,$4713 AF:3f20 BC:c000 DE:0101 HL:c004 SP:dfbb
4713  push hl AF:3f20 BC:c000 DE:0101 HL:c004 SP:dfb9
03ae  push af AF:3f20 BC:c000 DE:0101 HL:c004 SP:dfb7
03af  ld   a,($ffd0) AF:3f20 BC:c000 DE:0101 HL:c004 SP:dfb5
03b1  and  a,a AF:0020 BC:c000 DE:0101 HL:c004 SP:dfb5
03b2  jr   z,$03df AF:00a0 BC:c000 DE:0101 HL:c004 SP:dfb5
03df  pop  af AF:00a0 BC:c000 DE:0101 HL:c004 SP:dfb5
03e0  reti AF:3f20 BC:c000 DE:0101 HL:c004 SP:dfb7
4713  push hl AF:3f20 BC:c000 DE:0101 HL:c004 SP:dfb9
4714  ld   hl,$0027 AF:3f20 BC:c000 DE:0101 HL:c004 SP:dfb7
4717  add  hl,bc AF:3f20 BC:c000 DE:0101 HL:0027 SP:dfb7
4718  ld   e,(hl) AF:3f00 BC:c000 DE:0101 HL:c027 SP:dfb7
4719  inc  hl AF:3f00 BC:c000 DE:0101 HL:c027 SP:dfb7
471a  ld   d,(hl) AF:3f00 BC:c000 DE:0101 HL:c028 SP:dfb7
471b  ld   hl,$c193 AF:3f00 BC:c000 DE:0001 HL:c028 SP:dfb7
471e  push hl AF:3f00 BC:c000 DE:0001 HL:c193 SP:dfb7
471f  ldi  a,(hl) AF:3f00 BC:c000 DE:0001 HL:c193 SP:dfb5
4720  ld   h,(hl) AF:d600 BC:c000 DE:0001 HL:c194 SP:dfb5
4721  ld   l,a AF:d600 BC:c000 DE:0001 HL:0694 SP:dfb5
4722  add  hl,de AF:d600 BC:c000 DE:0001 HL:06d6 SP:dfb5
4723  ld   e,l AF:d600 BC:c000 DE:0001 HL:06d7 SP:dfb5
4724  ld   d,h AF:d600 BC:c000 DE:00d7 HL:06d7 SP:dfb5
4725  pop  hl AF:d600 BC:c000 DE:06d7 HL:06d7 SP:dfb5
4726  ld   (hl),e AF:d600 BC:c000 DE:06d7 HL:c193 SP:dfb7
4727  inc  hl AF:d600 BC:c000 DE:06d7 HL:c193 SP:dfb7
4728  ld   (hl),d AF:d600 BC:c000 DE:06d7 HL:c194 SP:dfb7
4729  pop  hl AF:d600 BC:c000 DE:06d7 HL:c194 SP:dfb7
472a  ret AF:d600 BC:c000 DE:06d7 HL:c004 SP:dfb9
45eb  bit  1,(hl) AF:d600 BC:c000 DE:06d7 HL:c004 SP:dfbb
45ed  call nz,$461b AF:d6a0 BC:c000 DE:06d7 HL:c004 SP:dfbb
45f0  bit  0,(hl) AF:d6a0 BC:c000 DE:06d7 HL:c004 SP:dfbb
45f2  call nz,$46ad AF:d6a0 BC:c000 DE:06d7 HL:c004 SP:dfbb
45f5  bit  5,(hl) AF:d6a0 BC:c000 DE:06d7 HL:c004 SP:dfbb
45f7  call nz,$475e AF:d6a0 BC:c000 DE:06d7 HL:c004 SP:dfbb
45fa  bit  3,(hl) AF:d6a0 BC:c000 DE:06d7 HL:c004 SP:dfbb
45fc  call nz,$46ff AF:d6a0 BC:c000 DE:06d7 HL:c004 SP:dfbb
45ff  bit  7,(hl) AF:d6a0 BC:c000 DE:06d7 HL:c004 SP:dfbb
4601  call nz,$47bb AF:d6a0 BC:c000 DE:06d7 HL:c004 SP:dfbb
4604  ret AF:d6a0 BC:c000 DE:06d7 HL:c004 SP:dfbb
40da  call $47f9 AF:d6a0 BC:c000 DE:06d7 HL:c004 SP:dfbd
47f9  ld   hl,$0003 AF:d6a0 BC:c000 DE:06d7 HL:c004 SP:dfbb
03ae  push af AF:d6a0 BC:c000 DE:06d7 HL:c004 SP:dfb9
03af  ld   a,($ffd0) AF:d6a0 BC:c000 DE:06d7 HL:c004 SP:dfb7
03b1  and  a,a AF:00a0 BC:c000 DE:06d7 HL:c004 SP:dfb7
03b2  jr   z,$03df AF:00a0 BC:c000 DE:06d7 HL:c004 SP:dfb7
03df  pop  af AF:00a0 BC:c000 DE:06d7 HL:c004 SP:dfb7
03e0  reti AF:d6a0 BC:c000 DE:06d7 HL:c004 SP:dfb9
47f9  ld   hl,$0003 AF:d6a0 BC:c000 DE:06d7 HL:c004 SP:dfbb
47fc  add  hl,bc AF:d6a0 BC:c000 DE:06d7 HL:0003 SP:dfbb
47fd  bit  4,(hl) AF:d680 BC:c000 DE:06d7 HL:c003 SP:dfbb
47ff  ret  z AF:d6a0 BC:c000 DE:06d7 HL:c003 SP:dfbb
40dd  call $4839 AF:d6a0 BC:c000 DE:06d7 HL:c003 SP:dfbd
4839  ld   a,($c1b4) AF:d6a0 BC:c000 DE:06d7 HL:c003 SP:dfbb
483c  and  a,a AF:00a0 BC:c000 DE:06d7 HL:c003 SP:dfbb
483d  ret  z AF:00a0 BC:c000 DE:06d7 HL:c003 SP:dfbb
40e0  call $42bd AF:00a0 BC:c000 DE:06d7 HL:c003 SP:dfbd
42bd  ld   a,($c198) AF:00a0 BC:c000 DE:06d7 HL:c003 SP:dfbb
42c0  cp   a,$04 AF:00a0 BC:c000 DE:06d7 HL:c003 SP:dfbb
42c2  jr   nc,$42ce AF:0070 BC:c000 DE:06d7 HL:c003 SP:dfbb
42c4  ld   hl,$00cb AF:0070 BC:c000 DE:06d7 HL:c003 SP:dfbb
42c7  add  hl,bc AF:0070 BC:c000 DE:06d7 HL:00cb SP:dfbb
42c8  bit  0,(hl) AF:0000 BC:c000 DE:06d7 HL:c0cb SP:dfbb
42ca  jr   z,$42ce AF:0020 BC:c000 DE:06d7 HL:c0cb SP:dfbb
42cc  and  a,a AF:0020 BC:c000 DE:06d7 HL:c0cb SP:dfbb
42cd  ret AF:00a0 BC:c000 DE:06d7 HL:c0cb SP:dfbb
40e3  jr   nc,$40f3 AF:00a0 BC:c000 DE:06d7 HL:c0cb SP:dfbd
40f3  ld   hl,$000c AF:00a0 BC:c000 DE:06d7 HL:c0cb SP:dfbd
40f6  add  hl,bc AF:00a0 BC:c000 DE:06d7 HL:000c SP:dfbd
40f7  xor  a,a AF:0080 BC:c000 DE:06d7 HL:c00c SP:dfbd
40f8  ld   (hl),a AF:0080 BC:c000 DE:06d7 HL:c00c SP:dfbd
40f9  ret AF:0080 BC:c000 DE:06d7 HL:c00c SP:dfbd
4079  ret AF:0080 BC:c000 DE:06d7 HL:c00c SP:dfbf
404c  ld   hl,$0032 AF:0080 BC:c000 DE:06d7 HL:c00c SP:dfc1
404f  add  hl,bc AF:0080 BC:c000 DE:06d7 HL:0032 SP:dfc1
4050  ld   c,l AF:0080 BC:c000 DE:06d7 HL:c032 SP:dfc1
4051  ld   b,h AF:0080 BC:c032 DE:06d7 HL:c032 SP:dfc1
4052  ld   a,($c198) AF:0080 BC:c032 DE:06d7 HL:c032 SP:dfc1
03ae  push af AF:0080 BC:c032 DE:06d7 HL:c032 SP:dfbf
03af  ld   a,($ffd0) AF:0080 BC:c032 DE:06d7 HL:c032 SP:dfbd
03b1  and  a,a AF:0080 BC:c032 DE:06d7 HL:c032 SP:dfbd
03b2  jr   z,$03df AF:00a0 BC:c032 DE:06d7 HL:c032 SP:dfbd
03df  pop  af AF:00a0 BC:c032 DE:06d7 HL:c032 SP:dfbd
03e0  reti AF:0080 BC:c032 DE:06d7 HL:c032 SP:dfbf
4052  ld   a,($c198) AF:0080 BC:c032 DE:06d7 HL:c032 SP:dfc1
4055  inc  a AF:0080 BC:c032 DE:06d7 HL:c032 SP:dfc1
4056  ld   ($c198),a AF:0100 BC:c032 DE:06d7 HL:c032 SP:dfc1
4059  cp   a,$08 AF:0100 BC:c032 DE:06d7 HL:c032 SP:dfc1
405b  jr   nz,$4041 AF:0170 BC:c032 DE:06d7 HL:c032 SP:dfc1
4041  ld   hl,$0003 AF:0170 BC:c032 DE:06d7 HL:c032 SP:dfc1
4044  add  hl,bc AF:0170 BC:c032 DE:06d7 HL:0003 SP:dfc1
4045  bit  0,(hl) AF:0100 BC:c032 DE:06d7 HL:c035 SP:dfc1
4047  jr   z,$404c AF:0120 BC:c032 DE:06d7 HL:c035 SP:dfc1
4049  call $4061 AF:0120 BC:c032 DE:06d7 HL:c035 SP:dfc1
4061  ld   hl,$0015 AF:0120 BC:c032 DE:06d7 HL:c035 SP:dfbf
4064  add  hl,bc AF:0120 BC:c032 DE:06d7 HL:0015 SP:dfbf
4065  ld   a,(hl) AF:0100 BC:c032 DE:06d7 HL:c047 SP:dfbf
4066  cp   a,$01 AF:0200 BC:c032 DE:06d7 HL:c047 SP:dfbf
4068  jr   z,$4070 AF:0240 BC:c032 DE:06d7 HL:c047 SP:dfbf
406a  and  a,a AF:0240 BC:c032 DE:06d7 HL:c047 SP:dfbf
406b  jr   z,$4070 AF:0220 BC:c032 DE:06d7 HL:c047 SP:dfbf
406d  dec  (hl) AF:0220 BC:c032 DE:06d7 HL:c047 SP:dfbf
406e  jr   $4076 AF:0240 BC:c032 DE:06d7 HL:c047 SP:dfbf
4076  call $40b6 AF:0240 BC:c032 DE:06d7 HL:c047 SP:dfbf
40b6  ld   hl,$000e AF:0240 BC:c032 DE:06d7 HL:c047 SP:dfbd
40b9  add  hl,bc AF:0240 BC:c032 DE:06d7 HL:000e SP:dfbd
40ba  ld   a,(hl) AF:0200 BC:c032 DE:06d7 HL:c040 SP:dfbd
40bb  ld   ($c191),a AF:8000 BC:c032 DE:06d7 HL:c040 SP:dfbd
40be  ld   hl,$000f AF:8000 BC:c032 DE:06d7 HL:c040 SP:dfbd
40c1  add  hl,bc AF:8000 BC:c032 DE:06d7 HL:000f SP:dfbd
40c2  ld   a,(hl) AF:8000 BC:c032 DE:06d7 HL:c041 SP:dfbd
40c3  ld   ($c192),a AF:d200 BC:c032 DE:06d7 HL:c041 SP:dfbd
40c6  ld   hl,$0010 AF:d200 BC:c032 DE:06d7 HL:c041 SP:dfbd
40c9  add  hl,bc AF:d200 BC:c032 DE:06d7 HL:0010 SP:dfbd
40ca  ldi  a,(hl) AF:d200 BC:c032 DE:06d7 HL:c042 SP:dfbd
40cb  ld   ($c193),a AF:6b00 BC:c032 DE:06d7 HL:c043 SP:dfbd
40ce  ld   a,(hl) AF:6b00 BC:c032 DE:06d7 HL:c043 SP:dfbd
03ae  push af AF:6b00 BC:c032 DE:06d7 HL:c043 SP:dfbb
03af  ld   a,($ffd0) AF:6b00 BC:c032 DE:06d7 HL:c043 SP:dfb9
03b1  and  a,a AF:0000 BC:c032 DE:06d7 HL:c043 SP:dfb9
03b2  jr   z,$03df AF:00a0 BC:c032 DE:06d7 HL:c043 SP:dfb9
03df  pop  af AF:00a0 BC:c032 DE:06d7 HL:c043 SP:dfb9
03e0  reti AF:6b00 BC:c032 DE:06d7 HL:c043 SP:dfbb
40ce  ld   a,(hl) AF:6b00 BC:c032 DE:06d7 HL:c043 SP:dfbd
40cf  ld   ($c194),a AF:0700 BC:c032 DE:06d7 HL:c043 SP:dfbd
40d2  ld   a,$3f AF:0700 BC:c032 DE:06d7 HL:c043 SP:dfbd
40d4  ld   ($c195),a AF:3f00 BC:c032 DE:06d7 HL:c043 SP:dfbd
40d7  call $45d8 AF:3f00 BC:c032 DE:06d7 HL:c043 SP:dfbd
45d8  ld   hl,$0004 AF:3f00 BC:c032 DE:06d7 HL:c043 SP:dfbb
45db  add  hl,bc AF:3f00 BC:c032 DE:06d7 HL:0004 SP:dfbb
45dc  bit  2,(hl) AF:3f00 BC:c032 DE:06d7 HL:c036 SP:dfbb
45de  call nz,$4605 AF:3fa0 BC:c032 DE:06d7 HL:c036 SP:dfbb
45e1  bit  6,(hl) AF:3fa0 BC:c032 DE:06d7 HL:c036 SP:dfbb
45e3  call nz,$472b AF:3fa0 BC:c032 DE:06d7 HL:c036 SP:dfbb
45e6  bit  4,(hl) AF:3fa0 BC:c032 DE:06d7 HL:c036 SP:dfbb
45e8  call nz,$4713 AF:3fa0 BC:c032 DE:06d7 HL:c036 SP:dfbb
45eb  bit  1,(hl) AF:3fa0 BC:c032 DE:06d7 HL:c036 SP:dfbb
45ed  call nz,$461b AF:3fa0 BC:c032 DE:06d7 HL:c036 SP:dfbb
45f0  bit  0,(hl) AF:3fa0 BC:c032 DE:06d7 HL:c036 SP:dfbb
45f2  call nz,$46ad AF:3fa0 BC:c032 DE:06d7 HL:c036 SP:dfbb
45f5  bit  5,(hl) AF:3fa0 BC:c032 DE:06d7 HL:c036 SP:dfbb
45f7  call nz,$475e AF:3fa0 BC:c032 DE:06d7 HL:c036 SP:dfbb
45fa  bit  3,(hl) AF:3fa0 BC:c032 DE:06d7 HL:c036 SP:dfbb
45fc  call nz,$46ff AF:3fa0 BC:c032 DE:06d7 HL:c036 SP:dfbb
45ff  bit  7,(hl) AF:3fa0 BC:c032 DE:06d7 HL:c036 SP:dfbb
4601  call nz,$47bb AF:3fa0 BC:c032 DE:06d7 HL:c036 SP:dfbb
4604  ret AF:3fa0 BC:c032 DE:06d7 HL:c036 SP:dfbb
40da  call $47f9 AF:3fa0 BC:c032 DE:06d7 HL:c036 SP:dfbd
47f9  ld   hl,$0003 AF:3fa0 BC:c032 DE:06d7 HL:c036 SP:dfbb
47fc  add  hl,bc AF:3fa0 BC:c032 DE:06d7 HL:0003 SP:dfbb
47fd  bit  4,(hl) AF:3f80 BC:c032 DE:06d7 HL:c035 SP:dfbb
03ae  push af AF:3f80 BC:c032 DE:06d7 HL:c035 SP:dfb9
03af  ld   a,($ffd0) AF:3f80 BC:c032 DE:06d7 HL:c035 SP:dfb7
03b1  and  a,a AF:0080 BC:c032 DE:06d7 HL:c035 SP:dfb7
03b2  jr   z,$03df AF:00a0 BC:c032 DE:06d7 HL:c035 SP:dfb7
03df  pop  af AF:00a0 BC:c032 DE:06d7 HL:c035 SP:dfb7
03e0  reti AF:3f80 BC:c032 DE:06d7 HL:c035 SP:dfb9
47fd  bit  4,(hl) AF:3f80 BC:c032 DE:06d7 HL:c035 SP:dfbb
47ff  ret  z AF:3fa0 BC:c032 DE:06d7 HL:c035 SP:dfbb
40dd  call $4839 AF:3fa0 BC:c032 DE:06d7 HL:c035 SP:dfbd
4839  ld   a,($c1b4) AF:3fa0 BC:c032 DE:06d7 HL:c035 SP:dfbb
483c  and  a,a AF:00a0 BC:c032 DE:06d7 HL:c035 SP:dfbb
483d  ret  z AF:00a0 BC:c032 DE:06d7 HL:c035 SP:dfbb
40e0  call $42bd AF:00a0 BC:c032 DE:06d7 HL:c035 SP:dfbd
42bd  ld   a,($c198) AF:00a0 BC:c032 DE:06d7 HL:c035 SP:dfbb
42c0  cp   a,$04 AF:01a0 BC:c032 DE:06d7 HL:c035 SP:dfbb
42c2  jr   nc,$42ce AF:0170 BC:c032 DE:06d7 HL:c035 SP:dfbb
42c4  ld   hl,$00cb AF:0170 BC:c032 DE:06d7 HL:c035 SP:dfbb
42c7  add  hl,bc AF:0170 BC:c032 DE:06d7 HL:00cb SP:dfbb
42c8  bit  0,(hl) AF:0100 BC:c032 DE:06d7 HL:c0fd SP:dfbb
42ca  jr   z,$42ce AF:01a0 BC:c032 DE:06d7 HL:c0fd SP:dfbb
42ce  scf AF:01a0 BC:c032 DE:06d7 HL:c0fd SP:dfbb
42cf  ret AF:0190 BC:c032 DE:06d7 HL:c0fd SP:dfbb
40e3  jr   nc,$40f3 AF:0190 BC:c032 DE:06d7 HL:c0fd SP:dfbd
40e5  call $40fa AF:0190 BC:c032 DE:06d7 HL:c0fd SP:dfbd
40fa  ld   hl,$410b AF:0190 BC:c032 DE:06d7 HL:c0fd SP:dfbb
40fd  ld   a,($c198) AF:0190 BC:c032 DE:06d7 HL:410b SP:dfbb
4100  and  a,$07 AF:0190 BC:c032 DE:06d7 HL:410b SP:dfbb
4102  add  a,a AF:0120 BC:c032 DE:06d7 HL:410b SP:dfbb
4103  ld   e,a AF:0200 BC:c032 DE:06d7 HL:410b SP:dfbb
4104  ld   d,$00 AF:0200 BC:c032 DE:0602 HL:410b SP:dfbb
4106  add  hl,de AF:0200 BC:c032 DE:0002 HL:410b SP:dfbb
4107  ldi  a,(hl) AF:0200 BC:c032 DE:0002 HL:410d SP:dfbb
4108  ld   h,(hl) AF:9000 BC:c032 DE:0002 HL:410e SP:dfbb
4109  ld   l,a AF:9000 BC:c032 DE:0002 HL:410e SP:dfbb
410a  jp   hl AF:9000 BC:c032 DE:0002 HL:4190 SP:dfbb
4190  ld   hl,$000c AF:9000 BC:c032 DE:0002 HL:4190 SP:dfbb
4193  add  hl,bc AF:9000 BC:c032 DE:0002 HL:000c SP:dfbb
03ae  push af AF:9000 BC:c032 DE:0002 HL:000c SP:dfb9
03af  ld   a,($ffd0) AF:9000 BC:c032 DE:0002 HL:000c SP:dfb7
03b1  and  a,a AF:0000 BC:c032 DE:0002 HL:000c SP:dfb7
03b2  jr   z,$03df AF:00a0 BC:c032 DE:0002 HL:000c SP:dfb7
03df  pop  af AF:00a0 BC:c032 DE:0002 HL:000c SP:dfb7
03e0  reti AF:9000 BC:c032 DE:0002 HL:000c SP:dfb9
4193  add  hl,bc AF:9000 BC:c032 DE:0002 HL:000c SP:dfbb
4194  bit  5,(hl) AF:9000 BC:c032 DE:0002 HL:c03e SP:dfbb
4196  jr   nz,$41ac AF:90a0 BC:c032 DE:0002 HL:c03e SP:dfbb
4198  bit  4,(hl) AF:90a0 BC:c032 DE:0002 HL:c03e SP:dfbb
419a  jr   nz,$41b8 AF:90a0 BC:c032 DE:0002 HL:c03e SP:dfbb
419c  bit  1,(hl) AF:90a0 BC:c032 DE:0002 HL:c03e SP:dfbb
419e  call nz,$41ec AF:90a0 BC:c032 DE:0002 HL:c03e SP:dfbb
41a1  bit  2,(hl) AF:90a0 BC:c032 DE:0002 HL:c03e SP:dfbb
41a3  call nz,$41df AF:90a0 BC:c032 DE:0002 HL:c03e SP:dfbb
41a6  bit  0,(hl) AF:90a0 BC:c032 DE:0002 HL:c03e SP:dfbb
41a8  call nz,$41d3 AF:90a0 BC:c032 DE:0002 HL:c03e SP:dfbb
41ab  ret AF:90a0 BC:c032 DE:0002 HL:c03e SP:dfbb
40e8  ld   hl,$001b AF:90a0 BC:c032 DE:0002 HL:c03e SP:dfbd
40eb  add  hl,bc AF:90a0 BC:c032 DE:0002 HL:001b SP:dfbd
40ec  ld   a,($c19a) AF:9080 BC:c032 DE:0002 HL:c04d SP:dfbd
40ef  or   a,(hl) AF:0080 BC:c032 DE:0002 HL:c04d SP:dfbd
40f0  ld   ($c19a),a AF:2200 BC:c032 DE:0002 HL:c04d SP:dfbd
40f3  ld   hl,$000c AF:2200 BC:c032 DE:0002 HL:c04d SP:dfbd
40f6  add  hl,bc AF:2200 BC:c032 DE:0002 HL:000c SP:dfbd
40f7  xor  a,a AF:2200 BC:c032 DE:0002 HL:c03e SP:dfbd
40f8  ld   (hl),a AF:0080 BC:c032 DE:0002 HL:c03e SP:dfbd
40f9  ret AF:0080 BC:c032 DE:0002 HL:c03e SP:dfbd
4079  ret AF:0080 BC:c032 DE:0002 HL:c03e SP:dfbf
404c  ld   hl,$0032 AF:0080 BC:c032 DE:0002 HL:c03e SP:dfc1
404f  add  hl,bc AF:0080 BC:c032 DE:0002 HL:0032 SP:dfc1
4050  ld   c,l AF:0080 BC:c032 DE:0002 HL:c064 SP:dfc1
4051  ld   b,h AF:0080 BC:c064 DE:0002 HL:c064 SP:dfc1
4052  ld   a,($c198) AF:0080 BC:c064 DE:0002 HL:c064 SP:dfc1
4055  inc  a AF:0180 BC:c064 DE:0002 HL:c064 SP:dfc1
4056  ld   ($c198),a AF:0200 BC:c064 DE:0002 HL:c064 SP:dfc1
4059  cp   a,$08 AF:0200 BC:c064 DE:0002 HL:c064 SP:dfc1
405b  jr   nz,$4041 AF:0270 BC:c064 DE:0002 HL:c064 SP:dfc1
4041  ld   hl,$0003 AF:0270 BC:c064 DE:0002 HL:c064 SP:dfc1
4044  add  hl,bc AF:0270 BC:c064 DE:0002 HL:0003 SP:dfc1
03ae  push af AF:0270 BC:c064 DE:0002 HL:0003 SP:dfbf
03af  ld   a,($ffd0) AF:0270 BC:c064 DE:0002 HL:0003 SP:dfbd
03b1  and  a,a AF:0070 BC:c064 DE:0002 HL:0003 SP:dfbd
03b2  jr   z,$03df AF:00a0 BC:c064 DE:0002 HL:0003 SP:dfbd
03df  pop  af AF:00a0 BC:c064 DE:0002 HL:0003 SP:dfbd
03e0  reti AF:0270 BC:c064 DE:0002 HL:0003 SP:dfbf
4044  add  hl,bc AF:0270 BC:c064 DE:0002 HL:0003 SP:dfc1
4045  bit  0,(hl) AF:0200 BC:c064 DE:0002 HL:c067 SP:dfc1
4047  jr   z,$404c AF:0220 BC:c064 DE:0002 HL:c067 SP:dfc1
4049  call $4061 AF:0220 BC:c064 DE:0002 HL:c067 SP:dfc1
4061  ld   hl,$0015 AF:0220 BC:c064 DE:0002 HL:c067 SP:dfbf
4064  add  hl,bc AF:0220 BC:c064 DE:0002 HL:0015 SP:dfbf
4065  ld   a,(hl) AF:0200 BC:c064 DE:0002 HL:c079 SP:dfbf
4066  cp   a,$01 AF:1f00 BC:c064 DE:0002 HL:c079 SP:dfbf
4068  jr   z,$4070 AF:1f40 BC:c064 DE:0002 HL:c079 SP:dfbf
406a  and  a,a AF:1f40 BC:c064 DE:0002 HL:c079 SP:dfbf
406b  jr   z,$4070 AF:1f20 BC:c064 DE:0002 HL:c079 SP:dfbf
406d  dec  (hl) AF:1f20 BC:c064 DE:0002 HL:c079 SP:dfbf
406e  jr   $4076 AF:1f40 BC:c064 DE:0002 HL:c079 SP:dfbf
4076  call $40b6 AF:1f40 BC:c064 DE:0002 HL:c079 SP:dfbf
40b6  ld   hl,$000e AF:1f40 BC:c064 DE:0002 HL:c079 SP:dfbd
40b9  add  hl,bc AF:1f40 BC:c064 DE:0002 HL:000e SP:dfbd
40ba  ld   a,(hl) AF:1f00 BC:c064 DE:0002 HL:c072 SP:dfbd
40bb  ld   ($c191),a AF:0000 BC:c064 DE:0002 HL:c072 SP:dfbd
40be  ld   hl,$000f AF:0000 BC:c064 DE:0002 HL:c072 SP:dfbd
40c1  add  hl,bc AF:0000 BC:c064 DE:0002 HL:000f SP:dfbd
40c2  ld   a,(hl) AF:0000 BC:c064 DE:0002 HL:c073 SP:dfbd
40c3  ld   ($c192),a AF:1300 BC:c064 DE:0002 HL:c073 SP:dfbd
40c6  ld   hl,$0010 AF:1300 BC:c064 DE:0002 HL:c073 SP:dfbd
40c9  add  hl,bc AF:1300 BC:c064 DE:0002 HL:0010 SP:dfbd
40ca  ldi  a,(hl) AF:1300 BC:c064 DE:0002 HL:c074 SP:dfbd
40cb  ld   ($c193),a AF:2000 BC:c064 DE:0002 HL:c075 SP:dfbd
40ce  ld   a,(hl) AF:2000 BC:c064 DE:0002 HL:c075 SP:dfbd
40cf  ld   ($c194),a AF:0700 BC:c064 DE:0002 HL:c075 SP:dfbd
40d2  ld   a,$3f AF:0700 BC:c064 DE:0002 HL:c075 SP:dfbd
40d4  ld   ($c195),a AF:3f00 BC:c064 DE:0002 HL:c075 SP:dfbd
40d7  call $45d8 AF:3f00 BC:c064 DE:0002 HL:c075 SP:dfbd
45d8  ld   hl,$0004 AF:3f00 BC:c064 DE:0002 HL:c075 SP:dfbb
03ae  push af AF:3f00 BC:c064 DE:0002 HL:c075 SP:dfb9
03af  ld   a,($ffd0) AF:3f00 BC:c064 DE:0002 HL:c075 SP:dfb7
03b1  and  a,a AF:0000 BC:c064 DE:0002 HL:c075 SP:dfb7
03b2  jr   z,$03df AF:00a0 BC:c064 DE:0002 HL:c075 SP:dfb7
03df  pop  af AF:00a0 BC:c064 DE:0002 HL:c075 SP:dfb7
03e0  reti AF:3f00 BC:c064 DE:0002 HL:c075 SP:dfb9
45d8  ld   hl,$0004 AF:3f00 BC:c064 DE:0002 HL:c075 SP:dfbb
45db  add  hl,bc AF:3f00 BC:c064 DE:0002 HL:0004 SP:dfbb
45dc  bit  2,(hl) AF:3f00 BC:c064 DE:0002 HL:c068 SP:dfbb
45de  call nz,$4605 AF:3fa0 BC:c064 DE:0002 HL:c068 SP:dfbb
45e1  bit  6,(hl) AF:3fa0 BC:c064 DE:0002 HL:c068 SP:dfbb
45e3  call nz,$472b AF:3fa0 BC:c064 DE:0002 HL:c068 SP:dfbb
45e6  bit  4,(hl) AF:3fa0 BC:c064 DE:0002 HL:c068 SP:dfbb
45e8  call nz,$4713 AF:3fa0 BC:c064 DE:0002 HL:c068 SP:dfbb
45eb  bit  1,(hl) AF:3fa0 BC:c064 DE:0002 HL:c068 SP:dfbb
45ed  call nz,$461b AF:3fa0 BC:c064 DE:0002 HL:c068 SP:dfbb
45f0  bit  0,(hl) AF:3fa0 BC:c064 DE:0002 HL:c068 SP:dfbb
45f2  call nz,$46ad AF:3fa0 BC:c064 DE:0002 HL:c068 SP:dfbb
45f5  bit  5,(hl) AF:3fa0 BC:c064 DE:0002 HL:c068 SP:dfbb
45f7  call nz,$475e AF:3fa0 BC:c064 DE:0002 HL:c068 SP:dfbb
45fa  bit  3,(hl) AF:3fa0 BC:c064 DE:0002 HL:c068 SP:dfbb
45fc  call nz,$46ff AF:3fa0 BC:c064 DE:0002 HL:c068 SP:dfbb
45ff  bit  7,(hl) AF:3fa0 BC:c064 DE:0002 HL:c068 SP:dfbb
4601  call nz,$47bb AF:3fa0 BC:c064 DE:0002 HL:c068 SP:dfbb
4604  ret AF:3fa0 BC:c064 DE:0002 HL:c068 SP:dfbb
40da  call $47f9 AF:3fa0 BC:c064 DE:0002 HL:c068 SP:dfbd
47f9  ld   hl,$0003 AF:3fa0 BC:c064 DE:0002 HL:c068 SP:dfbb
47fc  add  hl,bc AF:3fa0 BC:c064 DE:0002 HL:0003 SP:dfbb
47fd  bit  4,(hl) AF:3f80 BC:c064 DE:0002 HL:c067 SP:dfbb
47ff  ret  z AF:3fa0 BC:c064 DE:0002 HL:c067 SP:dfbb
40dd  call $4839 AF:3fa0 BC:c064 DE:0002 HL:c067 SP:dfbd
4839  ld   a,($c1b4) AF:3fa0 BC:c064 DE:0002 HL:c067 SP:dfbb
03ae  push af AF:3fa0 BC:c064 DE:0002 HL:c067 SP:dfb9
03af  ld   a,($ffd0) AF:3fa0 BC:c064 DE:0002 HL:c067 SP:dfb7
03b1  and  a,a AF:00a0 BC:c064 DE:0002 HL:c067 SP:dfb7
03b2  jr   z,$03df AF:00a0 BC:c064 DE:0002 HL:c067 SP:dfb7
03df  pop  af AF:00a0 BC:c064 DE:0002 HL:c067 SP:dfb7
03e0  reti AF:3fa0 BC:c064 DE:0002 HL:c067 SP:dfb9
4839  ld   a,($c1b4) AF:3fa0 BC:c064 DE:0002 HL:c067 SP:dfbb
483c  and  a,a AF:00a0 BC:c064 DE:0002 HL:c067 SP:dfbb
483d  ret  z AF:00a0 BC:c064 DE:0002 HL:c067 SP:dfbb
40e0  call $42bd AF:00a0 BC:c064 DE:0002 HL:c067 SP:dfbd
42bd  ld   a,($c198) AF:00a0 BC:c064 DE:0002 HL:c067 SP:dfbb
42c0  cp   a,$04 AF:02a0 BC:c064 DE:0002 HL:c067 SP:dfbb
42c2  jr   nc,$42ce AF:0270 BC:c064 DE:0002 HL:c067 SP:dfbb
42c4  ld   hl,$00cb AF:0270 BC:c064 DE:0002 HL:c067 SP:dfbb
42c7  add  hl,bc AF:0270 BC:c064 DE:0002 HL:00cb SP:dfbb
42c8  bit  0,(hl) AF:0200 BC:c064 DE:0002 HL:c12f SP:dfbb
42ca  jr   z,$42ce AF:02a0 BC:c064 DE:0002 HL:c12f SP:dfbb
42ce  scf AF:02a0 BC:c064 DE:0002 HL:c12f SP:dfbb
42cf  ret AF:0290 BC:c064 DE:0002 HL:c12f SP:dfbb
40e3  jr   nc,$40f3 AF:0290 BC:c064 DE:0002 HL:c12f SP:dfbd
40e5  call $40fa AF:0290 BC:c064 DE:0002 HL:c12f SP:dfbd
40fa  ld   hl,$410b AF:0290 BC:c064 DE:0002 HL:c12f SP:dfbb
40fd  ld   a,($c198) AF:0290 BC:c064 DE:0002 HL:410b SP:dfbb
4100  and  a,$07 AF:0290 BC:c064 DE:0002 HL:410b SP:dfbb
4102  add  a,a AF:0220 BC:c064 DE:0002 HL:410b SP:dfbb
4103  ld   e,a AF:0400 BC:c064 DE:0002 HL:410b SP:dfbb
4104  ld   d,$00 AF:0400 BC:c064 DE:0004 HL:410b SP:dfbb
4106  add  hl,de AF:0400 BC:c064 DE:0004 HL:410b SP:dfbb
4107  ldi  a,(hl) AF:0400 BC:c064 DE:0004 HL:410f SP:dfbb
4108  ld   h,(hl) AF:f700 BC:c064 DE:0004 HL:4110 SP:dfbb
4109  ld   l,a AF:f700 BC:c064 DE:0004 HL:4110 SP:dfbb
410a  jp   hl AF:f700 BC:c064 DE:0004 HL:41f7 SP:dfbb
41f7  ld   hl,$000c AF:f700 BC:c064 DE:0004 HL:41f7 SP:dfbb
41fa  add  hl,bc AF:f700 BC:c064 DE:0004 HL:000c SP:dfbb
41fb  bit  5,(hl) AF:f700 BC:c064 DE:0004 HL:c070 SP:dfbb
41fd  jr   nz,$420e AF:f7a0 BC:c064 DE:0004 HL:c070 SP:dfbb
41ff  bit  4,(hl) AF:f7a0 BC:c064 DE:0004 HL:c070 SP:dfbb
4201  jr   nz,$4212 AF:f7a0 BC:c064 DE:0004 HL:c070 SP:dfbb
4203  bit  1,(hl) AF:f7a0 BC:c064 DE:0004 HL:c070 SP:dfbb
4205  call nz,$422e AF:f7a0 BC:c064 DE:0004 HL:c070 SP:dfbb
03ae  push af AF:f7a0 BC:c064 DE:0004 HL:c070 SP:dfb9
03af  ld   a,($ffd0) AF:f7a0 BC:c064 DE:0004 HL:c070 SP:dfb7
03b1  and  a,a AF:00a0 BC:c064 DE:0004 HL:c070 SP:dfb7
03b2  jr   z,$03df AF:00a0 BC:c064 DE:0004 HL:c070 SP:dfb7
03df  pop  af AF:00a0 BC:c064 DE:0004 HL:c070 SP:dfb7
03e0  reti AF:f7a0 BC:c064 DE:0004 HL:c070 SP:dfb9
4205  call nz,$422e AF:f7a0 BC:c064 DE:0004 HL:c070 SP:dfbb
4208  bit  2,(hl) AF:f7a0 BC:c064 DE:0004 HL:c070 SP:dfbb
420a  call nz,$4239 AF:f7a0 BC:c064 DE:0004 HL:c070 SP:dfbb
420d  ret AF:f7a0 BC:c064 DE:0004 HL:c070 SP:dfbb
40e8  ld   hl,$001b AF:f7a0 BC:c064 DE:0004 HL:c070 SP:dfbd
40eb  add  hl,bc AF:f7a0 BC:c064 DE:0004 HL:001b SP:dfbd
40ec  ld   a,($c19a) AF:f780 BC:c064 DE:0004 HL:c07f SP:dfbd
40ef  or   a,(hl) AF:2280 BC:c064 DE:0004 HL:c07f SP:dfbd
40f0  ld   ($c19a),a AF:6600 BC:c064 DE:0004 HL:c07f SP:dfbd
40f3  ld   hl,$000c AF:6600 BC:c064 DE:0004 HL:c07f SP:dfbd
40f6  add  hl,bc AF:6600 BC:c064 DE:0004 HL:000c SP:dfbd
40f7  xor  a,a AF:6600 BC:c064 DE:0004 HL:c070 SP:dfbd
40f8  ld   (hl),a AF:0080 BC:c064 DE:0004 HL:c070 SP:dfbd
40f9  ret AF:0080 BC:c064 DE:0004 HL:c070 SP:dfbd
4079  ret AF:0080 BC:c064 DE:0004 HL:c070 SP:dfbf
404c  ld   hl,$0032 AF:0080 BC:c064 DE:0004 HL:c070 SP:dfc1
404f  add  hl,bc AF:0080 BC:c064 DE:0004 HL:0032 SP:dfc1
4050  ld   c,l AF:0080 BC:c064 DE:0004 HL:c096 SP:dfc1
4051  ld   b,h AF:0080 BC:c096 DE:0004 HL:c096 SP:dfc1
4052  ld   a,($c198) AF:0080 BC:c096 DE:0004 HL:c096 SP:dfc1
4055  inc  a AF:0280 BC:c096 DE:0004 HL:c096 SP:dfc1
4056  ld   ($c198),a AF:0300 BC:c096 DE:0004 HL:c096 SP:dfc1
4059  cp   a,$08 AF:0300 BC:c096 DE:0004 HL:c096 SP:dfc1
405b  jr   nz,$4041 AF:0370 BC:c096 DE:0004 HL:c096 SP:dfc1
4041  ld   hl,$0003 AF:0370 BC:c096 DE:0004 HL:c096 SP:dfc1
4044  add  hl,bc AF:0370 BC:c096 DE:0004 HL:0003 SP:dfc1
4045  bit  0,(hl) AF:0300 BC:c096 DE:0004 HL:c099 SP:dfc1
4047  jr   z,$404c AF:0320 BC:c096 DE:0004 HL:c099 SP:dfc1
4049  call $4061 AF:0320 BC:c096 DE:0004 HL:c099 SP:dfc1
4061  ld   hl,$0015 AF:0320 BC:c096 DE:0004 HL:c099 SP:dfbf
4064  add  hl,bc AF:0320 BC:c096 DE:0004 HL:0015 SP:dfbf
4065  ld   a,(hl) AF:0300 BC:c096 DE:0004 HL:c0ab SP:dfbf
4066  cp   a,$01 AF:0200 BC:c096 DE:0004 HL:c0ab SP:dfbf
03ae  push af AF:0200 BC:c096 DE:0004 HL:c0ab SP:dfbd
03af  ld   a,($ffd0) AF:0200 BC:c096 DE:0004 HL:c0ab SP:dfbb
03b1  and  a,a AF:0000 BC:c096 DE:0004 HL:c0ab SP:dfbb
03b2  jr   z,$03df AF:00a0 BC:c096 DE:0004 HL:c0ab SP:dfbb
03df  pop  af AF:00a0 BC:c096 DE:0004 HL:c0ab SP:dfbb
03e0  reti AF:0200 BC:c096 DE:0004 HL:c0ab SP:dfbd
4066  cp   a,$01 AF:0200 BC:c096 DE:0004 HL:c0ab SP:dfbf
4068  jr   z,$4070 AF:0240 BC:c096 DE:0004 HL:c0ab SP:dfbf
406a  and  a,a AF:0240 BC:c096 DE:0004 HL:c0ab SP:dfbf
406b  jr   z,$4070 AF:0220 BC:c096 DE:0004 HL:c0ab SP:dfbf
406d  dec  (hl) AF:0220 BC:c096 DE:0004 HL:c0ab SP:dfbf
406e  jr   $4076 AF:0240 BC:c096 DE:0004 HL:c0ab SP:dfbf
4076  call $40b6 AF:0240 BC:c096 DE:0004 HL:c0ab SP:dfbf
40b6  ld   hl,$000e AF:0240 BC:c096 DE:0004 HL:c0ab SP:dfbd
40b9  add  hl,bc AF:0240 BC:c096 DE:0004 HL:000e SP:dfbd
40ba  ld   a,(hl) AF:0200 BC:c096 DE:0004 HL:c0a4 SP:dfbd
40bb  ld   ($c191),a AF:0000 BC:c096 DE:0004 HL:c0a4 SP:dfbd
40be  ld   hl,$000f AF:0000 BC:c096 DE:0004 HL:c0a4 SP:dfbd
40c1  add  hl,bc AF:0000 BC:c096 DE:0004 HL:000f SP:dfbd
40c2  ld   a,(hl) AF:0000 BC:c096 DE:0004 HL:c0a5 SP:dfbd
40c3  ld   ($c192),a AF:0000 BC:c096 DE:0004 HL:c0a5 SP:dfbd
40c6  ld   hl,$0010 AF:0000 BC:c096 DE:0004 HL:c0a5 SP:dfbd
40c9  add  hl,bc AF:0000 BC:c096 DE:0004 HL:0010 SP:dfbd
40ca  ldi  a,(hl) AF:0000 BC:c096 DE:0004 HL:c0a6 SP:dfbd
40cb  ld   ($c193),a AF:0000 BC:c096 DE:0004 HL:c0a7 SP:dfbd
40ce  ld   a,(hl) AF:0000 BC:c096 DE:0004 HL:c0a7 SP:dfbd
40cf  ld   ($c194),a AF:0000 BC:c096 DE:0004 HL:c0a7 SP:dfbd
40d2  ld   a,$3f AF:0000 BC:c096 DE:0004 HL:c0a7 SP:dfbd
40d4  ld   ($c195),a AF:3f00 BC:c096 DE:0004 HL:c0a7 SP:dfbd
40d7  call $45d8 AF:3f00 BC:c096 DE:0004 HL:c0a7 SP:dfbd
45d8  ld   hl,$0004 AF:3f00 BC:c096 DE:0004 HL:c0a7 SP:dfbb
45db  add  hl,bc AF:3f00 BC:c096 DE:0004 HL:0004 SP:dfbb
45dc  bit  2,(hl) AF:3f00 BC:c096 DE:0004 HL:c09a SP:dfbb
45de  call nz,$4605 AF:3fa0 BC:c096 DE:0004 HL:c09a SP:dfbb
45e1  bit  6,(hl) AF:3fa0 BC:c096 DE:0004 HL:c09a SP:dfbb
45e3  call nz,$472b AF:3fa0 BC:c096 DE:0004 HL:c09a SP:dfbb
45e6  bit  4,(hl) AF:3fa0 BC:c096 DE:0004 HL:c09a SP:dfbb
03ae  push af AF:3fa0 BC:c096 DE:0004 HL:c09a SP:dfb9
03af  ld   a,($ffd0) AF:3fa0 BC:c096 DE:0004 HL:c09a SP:dfb7
03b1  and  a,a AF:00a0 BC:c096 DE:0004 HL:c09a SP:dfb7
03b2  jr   z,$03df AF:00a0 BC:c096 DE:0004 HL:c09a SP:dfb7
03df  pop  af AF:00a0 BC:c096 DE:0004 HL:c09a SP:dfb7
03e0  reti AF:3fa0 BC:c096 DE:0004 HL:c09a SP:dfb9
45e6  bit  4,(hl) AF:3fa0 BC:c096 DE:0004 HL:c09a SP:dfbb
45e8  call nz,$4713 AF:3fa0 BC:c096 DE:0004 HL:c09a SP:dfbb
45eb  bit  1,(hl) AF:3fa0 BC:c096 DE:0004 HL:c09a SP:dfbb
45ed  call nz,$461b AF:3fa0 BC:c096 DE:0004 HL:c09a SP:dfbb
45f0  bit  0,(hl) AF:3fa0 BC:c096 DE:0004 HL:c09a SP:dfbb
45f2  call nz,$46ad AF:3fa0 BC:c096 DE:0004 HL:c09a SP:dfbb
45f5  bit  5,(hl) AF:3fa0 BC:c096 DE:0004 HL:c09a SP:dfbb
45f7  call nz,$475e AF:3fa0 BC:c096 DE:0004 HL:c09a SP:dfbb
45fa  bit  3,(hl) AF:3fa0 BC:c096 DE:0004 HL:c09a SP:dfbb
45fc  call nz,$46ff AF:3fa0 BC:c096 DE:0004 HL:c09a SP:dfbb
45ff  bit  7,(hl) AF:3fa0 BC:c096 DE:0004 HL:c09a SP:dfbb
4601  call nz,$47bb AF:3fa0 BC:c096 DE:0004 HL:c09a SP:dfbb
4604  ret AF:3fa0 BC:c096 DE:0004 HL:c09a SP:dfbb
40da  call $47f9 AF:3fa0 BC:c096 DE:0004 HL:c09a SP:dfbd
47f9  ld   hl,$0003 AF:3fa0 BC:c096 DE:0004 HL:c09a SP:dfbb
47fc  add  hl,bc AF:3fa0 BC:c096 DE:0004 HL:0003 SP:dfbb
47fd  bit  4,(hl) AF:3f80 BC:c096 DE:0004 HL:c099 SP:dfbb
47ff  ret  z AF:3f20 BC:c096 DE:0004 HL:c099 SP:dfbb
4800  ld   a,($c1a1) AF:3f20 BC:c096 DE:0004 HL:c099 SP:dfbb
4803  and  a,a AF:0020 BC:c096 DE:0004 HL:c099 SP:dfbb
4804  jr   z,$480b AF:00a0 BC:c096 DE:0004 HL:c099 SP:dfbb
480b  ld   hl,$c19f AF:00a0 BC:c096 DE:0004 HL:c099 SP:dfbb
480e  ld   e,(hl) AF:00a0 BC:c096 DE:0004 HL:c19f SP:dfbb
480f  inc  hl AF:00a0 BC:c096 DE:00b2 HL:c19f SP:dfbb
4810  ld   d,(hl) AF:00a0 BC:c096 DE:00b2 HL:c1a0 SP:dfbb
4811  ld   a,(de) AF:00a0 BC:c096 DE:52b2 HL:c1a0 SP:dfbb
4812  inc  de AF:ffa0 BC:c096 DE:52b2 HL:c1a0 SP:dfbb
4813  cp   a,$ff AF:ffa0 BC:c096 DE:52b3 HL:c1a0 SP:dfbb
4815  jr   z,$4838 AF:ffc0 BC:c096 DE:52b3 HL:c1a0 SP:dfbb
4838  ret AF:ffc0 BC:c096 DE:52b3 HL:c1a0 SP:dfbb
40dd  call $4839 AF:ffc0 BC:c096 DE:52b3 HL:c1a0 SP:dfbd
03ae  push af AF:ffc0 BC:c096 DE:52b3 HL:c1a0 SP:dfbb
03af  ld   a,($ffd0) AF:ffc0 BC:c096 DE:52b3 HL:c1a0 SP:dfb9
03b1  and  a,a AF:00c0 BC:c096 DE:52b3 HL:c1a0 SP:dfb9
03b2  jr   z,$03df AF:00a0 BC:c096 DE:52b3 HL:c1a0 SP:dfb9
03df  pop  af AF:00a0 BC:c096 DE:52b3 HL:c1a0 SP:dfb9
03e0  reti AF:ffc0 BC:c096 DE:52b3 HL:c1a0 SP:dfbb
40dd  call $4839 AF:ffc0 BC:c096 DE:52b3 HL:c1a0 SP:dfbd
4839  ld   a,($c1b4) AF:ffc0 BC:c096 DE:52b3 HL:c1a0 SP:dfbb
483c  and  a,a AF:00c0 BC:c096 DE:52b3 HL:c1a0 SP:dfbb
483d  ret  z AF:00a0 BC:c096 DE:52b3 HL:c1a0 SP:dfbb
40e0  call $42bd AF:00a0 BC:c096 DE:52b3 HL:c1a0 SP:dfbd
42bd  ld   a,($c198) AF:00a0 BC:c096 DE:52b3 HL:c1a0 SP:dfbb
42c0  cp   a,$04 AF:03a0 BC:c096 DE:52b3 HL:c1a0 SP:dfbb
42c2  jr   nc,$42ce AF:0370 BC:c096 DE:52b3 HL:c1a0 SP:dfbb
42c4  ld   hl,$00cb AF:0370 BC:c096 DE:52b3 HL:c1a0 SP:dfbb
42c7  add  hl,bc AF:0370 BC:c096 DE:52b3 HL:00cb SP:dfbb
42c8  bit  0,(hl) AF:0300 BC:c096 DE:52b3 HL:c161 SP:dfbb
42ca  jr   z,$42ce AF:03a0 BC:c096 DE:52b3 HL:c161 SP:dfbb
42ce  scf AF:03a0 BC:c096 DE:52b3 HL:c161 SP:dfbb
42cf  ret AF:0390 BC:c096 DE:52b3 HL:c161 SP:dfbb
40e3  jr   nc,$40f3 AF:0390 BC:c096 DE:52b3 HL:c161 SP:dfbd
40e5  call $40fa AF:0390 BC:c096 DE:52b3 HL:c161 SP:dfbd
40fa  ld   hl,$410b AF:0390 BC:c096 DE:52b3 HL:c161 SP:dfbb
40fd  ld   a,($c198) AF:0390 BC:c096 DE:52b3 HL:410b SP:dfbb
4100  and  a,$07 AF:0390 BC:c096 DE:52b3 HL:410b SP:dfbb
4102  add  a,a AF:0320 BC:c096 DE:52b3 HL:410b SP:dfbb
4103  ld   e,a AF:0600 BC:c096 DE:52b3 HL:410b SP:dfbb
4104  ld   d,$00 AF:0600 BC:c096 DE:5206 HL:410b SP:dfbb
4106  add  hl,de AF:0600 BC:c096 DE:0006 HL:410b SP:dfbb
4107  ldi  a,(hl) AF:0600 BC:c096 DE:0006 HL:4111 SP:dfbb
4108  ld   h,(hl) AF:7900 BC:c096 DE:0006 HL:4112 SP:dfbb
4109  ld   l,a AF:7900 BC:c096 DE:0006 HL:4212 SP:dfbb
410a  jp   hl AF:7900 BC:c096 DE:0006 HL:4279 SP:dfbb
4279  ld   hl,$000c AF:7900 BC:c096 DE:0006 HL:4279 SP:dfbb
427c  add  hl,bc AF:7900 BC:c096 DE:0006 HL:000c SP:dfbb
427d  bit  5,(hl) AF:7900 BC:c096 DE:0006 HL:c0a2 SP:dfbb
427f  jr   nz,$4290 AF:79a0 BC:c096 DE:0006 HL:c0a2 SP:dfbb
4281  bit  4,(hl) AF:79a0 BC:c096 DE:0006 HL:c0a2 SP:dfbb
4283  jr   nz,$4299 AF:79a0 BC:c096 DE:0006 HL:c0a2 SP:dfbb
03ae  push af AF:79a0 BC:c096 DE:0006 HL:c0a2 SP:dfb9
03af  ld   a,($ffd0) AF:79a0 BC:c096 DE:0006 HL:c0a2 SP:dfb7
03b1  and  a,a AF:00a0 BC:c096 DE:0006 HL:c0a2 SP:dfb7
03b2  jr   z,$03df AF:00a0 BC:c096 DE:0006 HL:c0a2 SP:dfb7
03df  pop  af AF:00a0 BC:c096 DE:0006 HL:c0a2 SP:dfb7
03e0  reti AF:79a0 BC:c096 DE:0006 HL:c0a2 SP:dfb9
4283  jr   nz,$4299 AF:79a0 BC:c096 DE:0006 HL:c0a2 SP:dfbb
4285  bit  1,(hl) AF:79a0 BC:c096 DE:0006 HL:c0a2 SP:dfbb
4287  call nz,$42ad AF:79a0 BC:c096 DE:0006 HL:c0a2 SP:dfbb
428a  bit  2,(hl) AF:79a0 BC:c096 DE:0006 HL:c0a2 SP:dfbb
428c  call nz,$42b3 AF:79a0 BC:c096 DE:0006 HL:c0a2 SP:dfbb
428f  ret AF:79a0 BC:c096 DE:0006 HL:c0a2 SP:dfbb
40e8  ld   hl,$001b AF:79a0 BC:c096 DE:0006 HL:c0a2 SP:dfbd
40eb  add  hl,bc AF:79a0 BC:c096 DE:0006 HL:001b SP:dfbd
40ec  ld   a,($c19a) AF:7980 BC:c096 DE:0006 HL:c0b1 SP:dfbd
40ef  or   a,(hl) AF:6680 BC:c096 DE:0006 HL:c0b1 SP:dfbd
40f0  ld   ($c19a),a AF:ee00 BC:c096 DE:0006 HL:c0b1 SP:dfbd
40f3  ld   hl,$000c AF:ee00 BC:c096 DE:0006 HL:c0b1 SP:dfbd
40f6  add  hl,bc AF:ee00 BC:c096 DE:0006 HL:000c SP:dfbd
40f7  xor  a,a AF:ee00 BC:c096 DE:0006 HL:c0a2 SP:dfbd
40f8  ld   (hl),a AF:0080 BC:c096 DE:0006 HL:c0a2 SP:dfbd
40f9  ret AF:0080 BC:c096 DE:0006 HL:c0a2 SP:dfbd
4079  ret AF:0080 BC:c096 DE:0006 HL:c0a2 SP:dfbf
404c  ld   hl,$0032 AF:0080 BC:c096 DE:0006 HL:c0a2 SP:dfc1
404f  add  hl,bc AF:0080 BC:c096 DE:0006 HL:0032 SP:dfc1
4050  ld   c,l AF:0080 BC:c096 DE:0006 HL:c0c8 SP:dfc1
4051  ld   b,h AF:0080 BC:c0c8 DE:0006 HL:c0c8 SP:dfc1
4052  ld   a,($c198) AF:0080 BC:c0c8 DE:0006 HL:c0c8 SP:dfc1
4055  inc  a AF:0380 BC:c0c8 DE:0006 HL:c0c8 SP:dfc1
4056  ld   ($c198),a AF:0400 BC:c0c8 DE:0006 HL:c0c8 SP:dfc1
4059  cp   a,$08 AF:0400 BC:c0c8 DE:0006 HL:c0c8 SP:dfc1
405b  jr   nz,$4041 AF:0470 BC:c0c8 DE:0006 HL:c0c8 SP:dfc1
4041  ld   hl,$0003 AF:0470 BC:c0c8 DE:0006 HL:c0c8 SP:dfc1
4044  add  hl,bc AF:0470 BC:c0c8 DE:0006 HL:0003 SP:dfc1
4045  bit  0,(hl) AF:0400 BC:c0c8 DE:0006 HL:c0cb SP:dfc1
4047  jr   z,$404c AF:0420 BC:c0c8 DE:0006 HL:c0cb SP:dfc1
4049  call $4061 AF:0420 BC:c0c8 DE:0006 HL:c0cb SP:dfc1
4061  ld   hl,$0015 AF:0420 BC:c0c8 DE:0006 HL:c0cb SP:dfbf
03ae  push af AF:0420 BC:c0c8 DE:0006 HL:c0cb SP:dfbd
03af  ld   a,($ffd0) AF:0420 BC:c0c8 DE:0006 HL:c0cb SP:dfbb
03b1  and  a,a AF:0020 BC:c0c8 DE:0006 HL:c0cb SP:dfbb
03b2  jr   z,$03df AF:00a0 BC:c0c8 DE:0006 HL:c0cb SP:dfbb
03df  pop  af AF:00a0 BC:c0c8 DE:0006 HL:c0cb SP:dfbb
03e0  reti AF:0420 BC:c0c8 DE:0006 HL:c0cb SP:dfbd
4061  ld   hl,$0015 AF:0420 BC:c0c8 DE:0006 HL:c0cb SP:dfbf
4064  add  hl,bc AF:0420 BC:c0c8 DE:0006 HL:0015 SP:dfbf
4065  ld   a,(hl) AF:0400 BC:c0c8 DE:0006 HL:c0dd SP:dfbf
4066  cp   a,$01 AF:0000 BC:c0c8 DE:0006 HL:c0dd SP:dfbf
4068  jr   z,$4070 AF:0070 BC:c0c8 DE:0006 HL:c0dd SP:dfbf
406a  and  a,a AF:0070 BC:c0c8 DE:0006 HL:c0dd SP:dfbf
406b  jr   z,$4070 AF:00a0 BC:c0c8 DE:0006 HL:c0dd SP:dfbf
4070  call $407a AF:00a0 BC:c0c8 DE:0006 HL:c0dd SP:dfbf
407a  ld   hl,$0004 AF:00a0 BC:c0c8 DE:0006 HL:c0dd SP:dfbd
407d  add  hl,bc AF:00a0 BC:c0c8 DE:0006 HL:0004 SP:dfbd
407e  res  1,(hl) AF:0080 BC:c0c8 DE:0006 HL:c0cc SP:dfbd
4080  ret AF:0080 BC:c0c8 DE:0006 HL:c0cc SP:dfbd
4073  call $484f AF:0080 BC:c0c8 DE:0006 HL:c0cc SP:dfbf
484f  call $4c65 AF:0080 BC:c0c8 DE:0006 HL:c0cc SP:dfbd
4c65  push hl AF:0080 BC:c0c8 DE:0006 HL:c0cc SP:dfbb
4c66  push de AF:0080 BC:c0c8 DE:0006 HL:c0cc SP:dfb9
4c67  ld   hl,$0006 AF:0080 BC:c0c8 DE:0006 HL:c0cc SP:dfb7
4c6a  add  hl,bc AF:0080 BC:c0c8 DE:0006 HL:0006 SP:dfb7
4c6b  ld   e,(hl) AF:0080 BC:c0c8 DE:0006 HL:c0ce SP:dfb7
4c6c  inc  hl AF:0080 BC:c0c8 DE:0050 HL:c0ce SP:dfb7
4c6d  ld   d,(hl) AF:0080 BC:c0c8 DE:0050 HL:c0cf SP:dfb7
4c6e  ld   hl,$0002 AF:0080 BC:c0c8 DE:4650 HL:c0cf SP:dfb7
4c71  add  hl,bc AF:0080 BC:c0c8 DE:4650 HL:0002 SP:dfb7
4c72  ld   a,(hl) AF:0080 BC:c0c8 DE:4650 HL:c0ca SP:dfb7
4c73  call $3cbb AF:3c80 BC:c0c8 DE:4650 HL:c0ca SP:dfb7
3cbb  ld   ($2000),a AF:3c80 BC:c0c8 DE:4650 HL:c0ca SP:dfb5
3cbe  ld   ($ff98),a AF:3c80 BC:c0c8 DE:4650 HL:c0ca SP:dfb5
3cc0  ld   a,(de) AF:3c80 BC:c0c8 DE:4650 HL:c0ca SP:dfb5
3cc1  push af AF:db80 BC:c0c8 DE:4650 HL:c0ca SP:dfb5
03ae  push af AF:db80 BC:c0c8 DE:4650 HL:c0ca SP:dfb3
03af  ld   a,($ffd0) AF:db80 BC:c0c8 DE:4650 HL:c0ca SP:dfb1
03b1  and  a,a AF:0080 BC:c0c8 DE:4650 HL:c0ca SP:dfb1
03b2  jr   z,$03df AF:00a0 BC:c0c8 DE:4650 HL:c0ca SP:dfb1
03df  pop  af AF:00a0 BC:c0c8 DE:4650 HL:c0ca SP:dfb1
03e0  reti AF:db80 BC:c0c8 DE:4650 HL:c0ca SP:dfb3
3cc1  push af AF:db80 BC:c0c8 DE:4650 HL:c0ca SP:dfb5
3cc2  ld   a,$3a AF:db80 BC:c0c8 DE:4650 HL:c0ca SP:dfb3
3cc4  ld   ($2000),a AF:3a80 BC:c0c8 DE:4650 HL:c0ca SP:dfb3
3cc7  ld   ($ff98),a AF:3a80 BC:c0c8 DE:4650 HL:c0ca SP:dfb3
3cc9  pop  af AF:3a80 BC:c0c8 DE:4650 HL:c0ca SP:dfb3
3cca  ret AF:db80 BC:c0c8 DE:4650 HL:c0ca SP:dfb5
4c76  ld   ($c197),a AF:db80 BC:c0c8 DE:4650 HL:c0ca SP:dfb7
4c79  inc  de AF:db80 BC:c0c8 DE:4650 HL:c0ca SP:dfb7
4c7a  ld   hl,$0006 AF:db80 BC:c0c8 DE:4651 HL:c0ca SP:dfb7
4c7d  add  hl,bc AF:db80 BC:c0c8 DE:4651 HL:0006 SP:dfb7
4c7e  ld   (hl),e AF:db80 BC:c0c8 DE:4651 HL:c0ce SP:dfb7
4c7f  inc  hl AF:db80 BC:c0c8 DE:4651 HL:c0ce SP:dfb7
4c80  ld   (hl),d AF:db80 BC:c0c8 DE:4651 HL:c0cf SP:dfb7
4c81  pop  de AF:db80 BC:c0c8 DE:4651 HL:c0cf SP:dfb7
4c82  pop  hl AF:db80 BC:c0c8 DE:0006 HL:c0cf SP:dfb9
4c83  ret AF:db80 BC:c0c8 DE:0006 HL:c0cc SP:dfbb
4852  cp   a,$ff AF:db80 BC:c0c8 DE:0006 HL:c0cc SP:dfbd
4854  jr   z,$4876 AF:db70 BC:c0c8 DE:0006 HL:c0cc SP:dfbd
4856  cp   a,$d0 AF:db70 BC:c0c8 DE:0006 HL:c0cc SP:dfbd
4858  jr   nc,$489a AF:db40 BC:c0c8 DE:0006 HL:c0cc SP:dfbd
489a  call $4958 AF:db40 BC:c0c8 DE:0006 HL:c0cc SP:dfbd
4958  ld   a,($c197) AF:db40 BC:c0c8 DE:0006 HL:c0cc SP:dfbb
495b  sub  a,$d0 AF:db40 BC:c0c8 DE:0006 HL:c0cc SP:dfbb
495d  ld   e,a AF:0b40 BC:c0c8 DE:0006 HL:c0cc SP:dfbb
495e  ld   d,$00 AF:0b40 BC:c0c8 DE:000b HL:c0cc SP:dfbb
4960  ld   hl,$4969 AF:0b40 BC:c0c8 DE:000b HL:c0cc SP:dfbb
4963  add  hl,de AF:0b40 BC:c0c8 DE:000b HL:4969 SP:dfbb
4964  add  hl,de AF:0b00 BC:c0c8 DE:000b HL:4974 SP:dfbb
4965  ldi  a,(hl) AF:0b00 BC:c0c8 DE:000b HL:497f SP:dfbb
4966  ld   h,(hl) AF:b000 BC:c0c8 DE:000b HL:4980 SP:dfbb
4967  ld   l,a AF:b000 BC:c0c8 DE:000b HL:4b80 SP:dfbb
4968  jp   hl AF:b000 BC:c0c8 DE:000b HL:4bb0 SP:dfbb
4bb0  call $4c65 AF:b000 BC:c0c8 DE:000b HL:4bb0 SP:dfbb
4c65  push hl AF:b000 BC:c0c8 DE:000b HL:4bb0 SP:dfb9
03ae  push af AF:b000 BC:c0c8 DE:000b HL:4bb0 SP:dfb7
03af  ld   a,($ffd0) AF:b000 BC:c0c8 DE:000b HL:4bb0 SP:dfb5
03b1  and  a,a AF:0000 BC:c0c8 DE:000b HL:4bb0 SP:dfb5
03b2  jr   z,$03df AF:00a0 BC:c0c8 DE:000b HL:4bb0 SP:dfb5
03df  pop  af AF:00a0 BC:c0c8 DE:000b HL:4bb0 SP:dfb5
03e0  reti AF:b000 BC:c0c8 DE:000b HL:4bb0 SP:dfb7
4c65  push hl AF:b000 BC:c0c8 DE:000b HL:4bb0 SP:dfb9
4c66  push de AF:b000 BC:c0c8 DE:000b HL:4bb0 SP:dfb7
4c67  ld   hl,$0006 AF:b000 BC:c0c8 DE:000b HL:4bb0 SP:dfb5
4c6a  add  hl,bc AF:b000 BC:c0c8 DE:000b HL:0006 SP:dfb5
4c6b  ld   e,(hl) AF:b000 BC:c0c8 DE:000b HL:c0ce SP:dfb5
4c6c  inc  hl AF:b000 BC:c0c8 DE:0051 HL:c0ce SP:dfb5
4c6d  ld   d,(hl) AF:b000 BC:c0c8 DE:0051 HL:c0cf SP:dfb5
4c6e  ld   hl,$0002 AF:b000 BC:c0c8 DE:4651 HL:c0cf SP:dfb5
4c71  add  hl,bc AF:b000 BC:c0c8 DE:4651 HL:0002 SP:dfb5
4c72  ld   a,(hl) AF:b000 BC:c0c8 DE:4651 HL:c0ca SP:dfb5
4c73  call $3cbb AF:3c00 BC:c0c8 DE:4651 HL:c0ca SP:dfb5
3cbb  ld   ($2000),a AF:3c00 BC:c0c8 DE:4651 HL:c0ca SP:dfb3
3cbe  ld   ($ff98),a AF:3c00 BC:c0c8 DE:4651 HL:c0ca SP:dfb3
3cc0  ld   a,(de) AF:3c00 BC:c0c8 DE:4651 HL:c0ca SP:dfb3
3cc1  push af AF:0200 BC:c0c8 DE:4651 HL:c0ca SP:dfb3
3cc2  ld   a,$3a AF:0200 BC:c0c8 DE:4651 HL:c0ca SP:dfb1
3cc4  ld   ($2000),a AF:3a00 BC:c0c8 DE:4651 HL:c0ca SP:dfb1
3cc7  ld   ($ff98),a AF:3a00 BC:c0c8 DE:4651 HL:c0ca SP:dfb1
3cc9  pop  af AF:3a00 BC:c0c8 DE:4651 HL:c0ca SP:dfb1
3cca  ret AF:0200 BC:c0c8 DE:4651 HL:c0ca SP:dfb3
4c76  ld   ($c197),a AF:0200 BC:c0c8 DE:4651 HL:c0ca SP:dfb5
4c79  inc  de AF:0200 BC:c0c8 DE:4651 HL:c0ca SP:dfb5
4c7a  ld   hl,$0006 AF:0200 BC:c0c8 DE:4652 HL:c0ca SP:dfb5
4c7d  add  hl,bc AF:0200 BC:c0c8 DE:4652 HL:0006 SP:dfb5
4c7e  ld   (hl),e AF:0200 BC:c0c8 DE:4652 HL:c0ce SP:dfb5
4c7f  inc  hl AF:0200 BC:c0c8 DE:4652 HL:c0ce SP:dfb5
4c80  ld   (hl),d AF:0200 BC:c0c8 DE:4652 HL:c0cf SP:dfb5
4c81  pop  de AF:0200 BC:c0c8 DE:4652 HL:c0cf SP:dfb5
4c82  pop  hl AF:0200 BC:c0c8 DE:000b HL:c0cf SP:dfb7
4c83  ret AF:0200 BC:c0c8 DE:000b HL:4bb0 SP:dfb9
03ae  push af AF:0200 BC:c0c8 DE:000b HL:4bb0 SP:dfb7
03af  ld   a,($ffd0) AF:0200 BC:c0c8 DE:000b HL:4bb0 SP:dfb5
03b1  and  a,a AF:0000 BC:c0c8 DE:000b HL:4bb0 SP:dfb5
03b2  jr   z,$03df AF:00a0 BC:c0c8 DE:000b HL:4bb0 SP:dfb5
03df  pop  af AF:00a0 BC:c0c8 DE:000b HL:4bb0 SP:dfb5
03e0  reti AF:0200 BC:c0c8 DE:000b HL:4bb0 SP:dfb7
4c83  ret AF:0200 BC:c0c8 DE:000b HL:4bb0 SP:dfb9
4bb3  rrc  a AF:0200 BC:c0c8 DE:000b HL:4bb0 SP:dfbb
4bb4  rrc  a AF:0100 BC:c0c8 DE:000b HL:4bb0 SP:dfbb
4bb5  and  a,$c0 AF:8010 BC:c0c8 DE:000b HL:4bb0 SP:dfbb
4bb7  ld   hl,$000e AF:8020 BC:c0c8 DE:000b HL:4bb0 SP:dfbb
4bba  add  hl,bc AF:8020 BC:c0c8 DE:000b HL:000e SP:dfbb
4bbb  ld   (hl),a AF:8000 BC:c0c8 DE:000b HL:c0d6 SP:dfbb
4bbc  ret AF:8000 BC:c0c8 DE:000b HL:c0d6 SP:dfbb
489d  jr   $484f AF:8000 BC:c0c8 DE:000b HL:c0d6 SP:dfbd
484f  call $4c65 AF:8000 BC:c0c8 DE:000b HL:c0d6 SP:dfbd
4c65  push hl AF:8000 BC:c0c8 DE:000b HL:c0d6 SP:dfbb
4c66  push de AF:8000 BC:c0c8 DE:000b HL:c0d6 SP:dfb9
4c67  ld   hl,$0006 AF:8000 BC:c0c8 DE:000b HL:c0d6 SP:dfb7
4c6a  add  hl,bc AF:8000 BC:c0c8 DE:000b HL:0006 SP:dfb7
4c6b  ld   e,(hl) AF:8000 BC:c0c8 DE:000b HL:c0ce SP:dfb7
4c6c  inc  hl AF:8000 BC:c0c8 DE:0052 HL:c0ce SP:dfb7
4c6d  ld   d,(hl) AF:8000 BC:c0c8 DE:0052 HL:c0cf SP:dfb7
4c6e  ld   hl,$0002 AF:8000 BC:c0c8 DE:4652 HL:c0cf SP:dfb7
4c71  add  hl,bc AF:8000 BC:c0c8 DE:4652 HL:0002 SP:dfb7
4c72  ld   a,(hl) AF:8000 BC:c0c8 DE:4652 HL:c0ca SP:dfb7
4c73  call $3cbb AF:3c00 BC:c0c8 DE:4652 HL:c0ca SP:dfb7
3cbb  ld   ($2000),a AF:3c00 BC:c0c8 DE:4652 HL:c0ca SP:dfb5
3cbe  ld   ($ff98),a AF:3c00 BC:c0c8 DE:4652 HL:c0ca SP:dfb5
3cc0  ld   a,(de) AF:3c00 BC:c0c8 DE:4652 HL:c0ca SP:dfb5
3cc1  push af AF:0000 BC:c0c8 DE:4652 HL:c0ca SP:dfb5
3cc2  ld   a,$3a AF:0000 BC:c0c8 DE:4652 HL:c0ca SP:dfb3
3cc4  ld   ($2000),a AF:3a00 BC:c0c8 DE:4652 HL:c0ca SP:dfb3
3cc7  ld   ($ff98),a AF:3a00 BC:c0c8 DE:4652 HL:c0ca SP:dfb3
3cc9  pop  af AF:3a00 BC:c0c8 DE:4652 HL:c0ca SP:dfb3
3cca  ret AF:0000 BC:c0c8 DE:4652 HL:c0ca SP:dfb5
4c76  ld   ($c197),a AF:0000 BC:c0c8 DE:4652 HL:c0ca SP:dfb7
03ae  push af AF:0000 BC:c0c8 DE:4652 HL:c0ca SP:dfb5
03af  ld   a,($ffd0) AF:0000 BC:c0c8 DE:4652 HL:c0ca SP:dfb3
03b1  and  a,a AF:0000 BC:c0c8 DE:4652 HL:c0ca SP:dfb3
03b2  jr   z,$03df AF:00a0 BC:c0c8 DE:4652 HL:c0ca SP:dfb3
03df  pop  af AF:00a0 BC:c0c8 DE:4652 HL:c0ca SP:dfb3
03e0  reti AF:0000 BC:c0c8 DE:4652 HL:c0ca SP:dfb5
4c76  ld   ($c197),a AF:0000 BC:c0c8 DE:4652 HL:c0ca SP:dfb7
4c79  inc  de AF:0000 BC:c0c8 DE:4652 HL:c0ca SP:dfb7
4c7a  ld   hl,$0006 AF:0000 BC:c0c8 DE:4653 HL:c0ca SP:dfb7
4c7d  add  hl,bc AF:0000 BC:c0c8 DE:4653 HL:0006 SP:dfb7
4c7e  ld   (hl),e AF:0000 BC:c0c8 DE:4653 HL:c0ce SP:dfb7
4c7f  inc  hl AF:0000 BC:c0c8 DE:4653 HL:c0ce SP:dfb7
4c80  ld   (hl),d AF:0000 BC:c0c8 DE:4653 HL:c0cf SP:dfb7
4c81  pop  de AF:0000 BC:c0c8 DE:4653 HL:c0cf SP:dfb7
4c82  pop  hl AF:0000 BC:c0c8 DE:000b HL:c0cf SP:dfb9
4c83  ret AF:0000 BC:c0c8 DE:000b HL:c0d6 SP:dfbb
4852  cp   a,$ff AF:0000 BC:c0c8 DE:000b HL:c0d6 SP:dfbd
4854  jr   z,$4876 AF:0070 BC:c0c8 DE:000b HL:c0d6 SP:dfbd
4856  cp   a,$d0 AF:0070 BC:c0c8 DE:000b HL:c0d6 SP:dfbd
4858  jr   nc,$489a AF:0050 BC:c0c8 DE:000b HL:c0d6 SP:dfbd
485a  ld   hl,$0003 AF:0050 BC:c0c8 DE:000b HL:c0d6 SP:dfbd
485d  add  hl,bc AF:0050 BC:c0c8 DE:000b HL:0003 SP:dfbd
485e  bit  3,(hl) AF:0000 BC:c0c8 DE:000b HL:c0cb SP:dfbd
4860  jr   nz,$486e AF:0020 BC:c0c8 DE:000b HL:c0cb SP:dfbd
486e  call $48f5 AF:0020 BC:c0c8 DE:000b HL:c0cb SP:dfbd
48f5  ld   hl,$000c AF:0020 BC:c0c8 DE:000b HL:c0cb SP:dfbb
48f8  add  hl,bc AF:0020 BC:c0c8 DE:000b HL:000c SP:dfbb
48f9  set  4,(hl) AF:0000 BC:c0c8 DE:000b HL:c0d4 SP:dfbb
48fb  ld   a,($c197) AF:0000 BC:c0c8 DE:000b HL:c0d4 SP:dfbb
48fe  call $4cb4 AF:0000 BC:c0c8 DE:000b HL:c0d4 SP:dfbb
4cb4  inc  a AF:0000 BC:c0c8 DE:000b HL:c0d4 SP:dfb9
4cb5  ld   e,a AF:0100 BC:c0c8 DE:000b HL:c0d4 SP:dfb9
4cb6  ld   d,$00 AF:0100 BC:c0c8 DE:0001 HL:c0d4 SP:dfb9
4cb8  ld   hl,$002d AF:0100 BC:c0c8 DE:0001 HL:c0d4 SP:dfb9
4cbb  add  hl,bc AF:0100 BC:c0c8 DE:0001 HL:002d SP:dfb9
4cbc  ld   a,(hl) AF:0100 BC:c0c8 DE:0001 HL:c0f5 SP:dfb9
4cbd  ld   l,$00 AF:0100 BC:c0c8 DE:0001 HL:c0f5 SP:dfb9
4cbf  call $4cdf AF:0100 BC:c0c8 DE:0001 HL:c000 SP:dfb9
4cdf  ld   h,$00 AF:0100 BC:c0c8 DE:0001 HL:c000 SP:dfb7
03ae  push af AF:0100 BC:c0c8 DE:0001 HL:c000 SP:dfb5
03af  ld   a,($ffd0) AF:0100 BC:c0c8 DE:0001 HL:c000 SP:dfb3
03b1  and  a,a AF:0000 BC:c0c8 DE:0001 HL:c000 SP:dfb3
03b2  jr   z,$03df AF:00a0 BC:c0c8 DE:0001 HL:c000 SP:dfb3
03df  pop  af AF:00a0 BC:c0c8 DE:0001 HL:c000 SP:dfb3
03e0  reti AF:0100 BC:c0c8 DE:0001 HL:c000 SP:dfb5
4cdf  ld   h,$00 AF:0100 BC:c0c8 DE:0001 HL:c000 SP:dfb7
4ce1  srl  a AF:0100 BC:c0c8 DE:0001 HL:0000 SP:dfb7
4ce3  jr   nc,$4ce6 AF:0090 BC:c0c8 DE:0001 HL:0000 SP:dfb7
4ce5  add  hl,de AF:0090 BC:c0c8 DE:0001 HL:0000 SP:dfb7
4ce6  sla  e AF:0080 BC:c0c8 DE:0001 HL:0001 SP:dfb7
4ce8  rl   d AF:0000 BC:c0c8 DE:0002 HL:0001 SP:dfb7
4cea  and  a,a AF:0080 BC:c0c8 DE:0002 HL:0001 SP:dfb7
4ceb  jr   nz,$4ce1 AF:00a0 BC:c0c8 DE:0002 HL:0001 SP:dfb7
4ced  ret AF:00a0 BC:c0c8 DE:0002 HL:0001 SP:dfb7
4cc2  ld   a,l AF:00a0 BC:c0c8 DE:0002 HL:0001 SP:dfb9
4cc3  ld   hl,$0019 AF:01a0 BC:c0c8 DE:0002 HL:0001 SP:dfb9
4cc6  add  hl,bc AF:01a0 BC:c0c8 DE:0002 HL:0019 SP:dfb9
4cc7  ld   e,(hl) AF:0180 BC:c0c8 DE:0002 HL:c0e1 SP:dfb9
4cc8  inc  hl AF:0180 BC:c0c8 DE:0000 HL:c0e1 SP:dfb9
4cc9  ld   d,(hl) AF:0180 BC:c0c8 DE:0000 HL:c0e2 SP:dfb9
4cca  ld   hl,$0016 AF:0180 BC:c0c8 DE:0100 HL:c0e2 SP:dfb9
4ccd  add  hl,bc AF:0180 BC:c0c8 DE:0100 HL:0016 SP:dfb9
4cce  ld   l,(hl) AF:0180 BC:c0c8 DE:0100 HL:c0de SP:dfb9
4ccf  call $4cdf AF:0180 BC:c0c8 DE:0100 HL:c000 SP:dfb9
4cdf  ld   h,$00 AF:0180 BC:c0c8 DE:0100 HL:c000 SP:dfb7
4ce1  srl  a AF:0180 BC:c0c8 DE:0100 HL:0000 SP:dfb7
4ce3  jr   nc,$4ce6 AF:0090 BC:c0c8 DE:0100 HL:0000 SP:dfb7
4ce5  add  hl,de AF:0090 BC:c0c8 DE:0100 HL:0000 SP:dfb7
4ce6  sla  e AF:0080 BC:c0c8 DE:0100 HL:0100 SP:dfb7
4ce8  rl   d AF:0080 BC:c0c8 DE:0100 HL:0100 SP:dfb7
4cea  and  a,a AF:0000 BC:c0c8 DE:0200 HL:0100 SP:dfb7
4ceb  jr   nz,$4ce1 AF:00a0 BC:c0c8 DE:0200 HL:0100 SP:dfb7
4ced  ret AF:00a0 BC:c0c8 DE:0200 HL:0100 SP:dfb7
4cd2  ld   e,l AF:00a0 BC:c0c8 DE:0200 HL:0100 SP:dfb9
4cd3  ld   d,h AF:00a0 BC:c0c8 DE:0200 HL:0100 SP:dfb9
4cd4  ld   hl,$0016 AF:00a0 BC:c0c8 DE:0100 HL:0100 SP:dfb9
4cd7  add  hl,bc AF:00a0 BC:c0c8 DE:0100 HL:0016 SP:dfb9
4cd8  ld   (hl),e AF:0080 BC:c0c8 DE:0100 HL:c0de SP:dfb9
4cd9  ld   hl,$0015 AF:0080 BC:c0c8 DE:0100 HL:c0de SP:dfb9
4cdc  add  hl,bc AF:0080 BC:c0c8 DE:0100 HL:0015 SP:dfb9
4cdd  ld   (hl),d AF:0080 BC:c0c8 DE:0100 HL:c0dd SP:dfb9
4cde  ret AF:0080 BC:c0c8 DE:0100 HL:c0dd SP:dfb9
4901  call $4c65 AF:0080 BC:c0c8 DE:0100 HL:c0dd SP:dfbb
03ae  push af AF:0080 BC:c0c8 DE:0100 HL:c0dd SP:dfb9
03af  ld   a,($ffd0) AF:0080 BC:c0c8 DE:0100 HL:c0dd SP:dfb7
03b1  and  a,a AF:0080 BC:c0c8 DE:0100 HL:c0dd SP:dfb7
03b2  jr   z,$03df AF:00a0 BC:c0c8 DE:0100 HL:c0dd SP:dfb7
03df  pop  af AF:00a0 BC:c0c8 DE:0100 HL:c0dd SP:dfb7
03e0  reti AF:0080 BC:c0c8 DE:0100 HL:c0dd SP:dfb9
4901  call $4c65 AF:0080 BC:c0c8 DE:0100 HL:c0dd SP:dfbb
4c65  push hl AF:0080 BC:c0c8 DE:0100 HL:c0dd SP:dfb9
4c66  push de AF:0080 BC:c0c8 DE:0100 HL:c0dd SP:dfb7
4c67  ld   hl,$0006 AF:0080 BC:c0c8 DE:0100 HL:c0dd SP:dfb5
4c6a  add  hl,bc AF:0080 BC:c0c8 DE:0100 HL:0006 SP:dfb5
4c6b  ld   e,(hl) AF:0080 BC:c0c8 DE:0100 HL:c0ce SP:dfb5
4c6c  inc  hl AF:0080 BC:c0c8 DE:0153 HL:c0ce SP:dfb5
4c6d  ld   d,(hl) AF:0080 BC:c0c8 DE:0153 HL:c0cf SP:dfb5
4c6e  ld   hl,$0002 AF:0080 BC:c0c8 DE:4653 HL:c0cf SP:dfb5
4c71  add  hl,bc AF:0080 BC:c0c8 DE:4653 HL:0002 SP:dfb5
4c72  ld   a,(hl) AF:0080 BC:c0c8 DE:4653 HL:c0ca SP:dfb5
4c73  call $3cbb AF:3c80 BC:c0c8 DE:4653 HL:c0ca SP:dfb5
3cbb  ld   ($2000),a AF:3c80 BC:c0c8 DE:4653 HL:c0ca SP:dfb3
3cbe  ld   ($ff98),a AF:3c80 BC:c0c8 DE:4653 HL:c0ca SP:dfb3
3cc0  ld   a,(de) AF:3c80 BC:c0c8 DE:4653 HL:c0ca SP:dfb3
3cc1  push af AF:9180 BC:c0c8 DE:4653 HL:c0ca SP:dfb3
3cc2  ld   a,$3a AF:9180 BC:c0c8 DE:4653 HL:c0ca SP:dfb1
3cc4  ld   ($2000),a AF:3a80 BC:c0c8 DE:4653 HL:c0ca SP:dfb1
3cc7  ld   ($ff98),a AF:3a80 BC:c0c8 DE:4653 HL:c0ca SP:dfb1
3cc9  pop  af AF:3a80 BC:c0c8 DE:4653 HL:c0ca SP:dfb1
3cca  ret AF:9180 BC:c0c8 DE:4653 HL:c0ca SP:dfb3
4c76  ld   ($c197),a AF:9180 BC:c0c8 DE:4653 HL:c0ca SP:dfb5
4c79  inc  de AF:9180 BC:c0c8 DE:4653 HL:c0ca SP:dfb5
4c7a  ld   hl,$0006 AF:9180 BC:c0c8 DE:4654 HL:c0ca SP:dfb5
4c7d  add  hl,bc AF:9180 BC:c0c8 DE:4654 HL:0006 SP:dfb5
4c7e  ld   (hl),e AF:9180 BC:c0c8 DE:4654 HL:c0ce SP:dfb5
4c7f  inc  hl AF:9180 BC:c0c8 DE:4654 HL:c0ce SP:dfb5
4c80  ld   (hl),d AF:9180 BC:c0c8 DE:4654 HL:c0cf SP:dfb5
4c81  pop  de AF:9180 BC:c0c8 DE:4654 HL:c0cf SP:dfb5
4c82  pop  hl AF:9180 BC:c0c8 DE:0100 HL:c0cf SP:dfb7
03ae  push af AF:9180 BC:c0c8 DE:0100 HL:c0cf SP:dfb5
03af  ld   a,($ffd0) AF:9180 BC:c0c8 DE:0100 HL:c0cf SP:dfb3
03b1  and  a,a AF:0080 BC:c0c8 DE:0100 HL:c0cf SP:dfb3
03b2  jr   z,$03df AF:00a0 BC:c0c8 DE:0100 HL:c0cf SP:dfb3
03df  pop  af AF:00a0 BC:c0c8 DE:0100 HL:c0cf SP:dfb3
03e0  reti AF:9180 BC:c0c8 DE:0100 HL:c0cf SP:dfb5
4c82  pop  hl AF:9180 BC:c0c8 DE:0100 HL:c0cf SP:dfb7
4c83  ret AF:9180 BC:c0c8 DE:0100 HL:c0dd SP:dfb9
4904  ld   hl,$000f AF:9180 BC:c0c8 DE:0100 HL:c0dd SP:dfbb
4907  add  hl,bc AF:9180 BC:c0c8 DE:0100 HL:000f SP:dfbb
4908  ld   (hl),a AF:9180 BC:c0c8 DE:0100 HL:c0d7 SP:dfbb
4909  call $4c65 AF:9180 BC:c0c8 DE:0100 HL:c0d7 SP:dfbb
4c65  push hl AF:9180 BC:c0c8 DE:0100 HL:c0d7 SP:dfb9
4c66  push de AF:9180 BC:c0c8 DE:0100 HL:c0d7 SP:dfb7
4c67  ld   hl,$0006 AF:9180 BC:c0c8 DE:0100 HL:c0d7 SP:dfb5
4c6a  add  hl,bc AF:9180 BC:c0c8 DE:0100 HL:0006 SP:dfb5
4c6b  ld   e,(hl) AF:9180 BC:c0c8 DE:0100 HL:c0ce SP:dfb5
4c6c  inc  hl AF:9180 BC:c0c8 DE:0154 HL:c0ce SP:dfb5
4c6d  ld   d,(hl) AF:9180 BC:c0c8 DE:0154 HL:c0cf SP:dfb5
4c6e  ld   hl,$0002 AF:9180 BC:c0c8 DE:4654 HL:c0cf SP:dfb5
4c71  add  hl,bc AF:9180 BC:c0c8 DE:4654 HL:0002 SP:dfb5
4c72  ld   a,(hl) AF:9180 BC:c0c8 DE:4654 HL:c0ca SP:dfb5
4c73  call $3cbb AF:3c80 BC:c0c8 DE:4654 HL:c0ca SP:dfb5
3cbb  ld   ($2000),a AF:3c80 BC:c0c8 DE:4654 HL:c0ca SP:dfb3
3cbe  ld   ($ff98),a AF:3c80 BC:c0c8 DE:4654 HL:c0ca SP:dfb3
3cc0  ld   a,(de) AF:3c80 BC:c0c8 DE:4654 HL:c0ca SP:dfb3
3cc1  push af AF:c080 BC:c0c8 DE:4654 HL:c0ca SP:dfb3
3cc2  ld   a,$3a AF:c080 BC:c0c8 DE:4654 HL:c0ca SP:dfb1
3cc4  ld   ($2000),a AF:3a80 BC:c0c8 DE:4654 HL:c0ca SP:dfb1
3cc7  ld   ($ff98),a AF:3a80 BC:c0c8 DE:4654 HL:c0ca SP:dfb1
3cc9  pop  af AF:3a80 BC:c0c8 DE:4654 HL:c0ca SP:dfb1
3cca  ret AF:c080 BC:c0c8 DE:4654 HL:c0ca SP:dfb3
4c76  ld   ($c197),a AF:c080 BC:c0c8 DE:4654 HL:c0ca SP:dfb5
4c79  inc  de AF:c080 BC:c0c8 DE:4654 HL:c0ca SP:dfb5
4c7a  ld   hl,$0006 AF:c080 BC:c0c8 DE:4655 HL:c0ca SP:dfb5
03ae  push af AF:c080 BC:c0c8 DE:4655 HL:c0ca SP:dfb3
03af  ld   a,($ffd0) AF:c080 BC:c0c8 DE:4655 HL:c0ca SP:dfb1
03b1  and  a,a AF:0080 BC:c0c8 DE:4655 HL:c0ca SP:dfb1
03b2  jr   z,$03df AF:00a0 BC:c0c8 DE:4655 HL:c0ca SP:dfb1
03df  pop  af AF:00a0 BC:c0c8 DE:4655 HL:c0ca SP:dfb1
03e0  reti AF:c080 BC:c0c8 DE:4655 HL:c0ca SP:dfb3
4c7a  ld   hl,$0006 AF:c080 BC:c0c8 DE:4655 HL:c0ca SP:dfb5
4c7d  add  hl,bc AF:c080 BC:c0c8 DE:4655 HL:0006 SP:dfb5
4c7e  ld   (hl),e AF:c080 BC:c0c8 DE:4655 HL:c0ce SP:dfb5
4c7f  inc  hl AF:c080 BC:c0c8 DE:4655 HL:c0ce SP:dfb5
4c80  ld   (hl),d AF:c080 BC:c0c8 DE:4655 HL:c0cf SP:dfb5
4c81  pop  de AF:c080 BC:c0c8 DE:4655 HL:c0cf SP:dfb5
4c82  pop  hl AF:c080 BC:c0c8 DE:0100 HL:c0cf SP:dfb7
4c83  ret AF:c080 BC:c0c8 DE:0100 HL:c0d7 SP:dfb9
490c  ld   hl,$0010 AF:c080 BC:c0c8 DE:0100 HL:c0d7 SP:dfbb
490f  add  hl,bc AF:c080 BC:c0c8 DE:0100 HL:0010 SP:dfbb
4910  ld   (hl),a AF:c080 BC:c0c8 DE:0100 HL:c0d8 SP:dfbb
4911  ld   a,($c198) AF:c080 BC:c0c8 DE:0100 HL:c0d8 SP:dfbb
4914  and  a,$03 AF:0480 BC:c0c8 DE:0100 HL:c0d8 SP:dfbb
4916  cp   a,$03 AF:00a0 BC:c0c8 DE:0100 HL:c0d8 SP:dfbb
4918  ret  z AF:0070 BC:c0c8 DE:0100 HL:c0d8 SP:dfbb
4919  call $4c65 AF:0070 BC:c0c8 DE:0100 HL:c0d8 SP:dfbb
4c65  push hl AF:0070 BC:c0c8 DE:0100 HL:c0d8 SP:dfb9
4c66  push de AF:0070 BC:c0c8 DE:0100 HL:c0d8 SP:dfb7
4c67  ld   hl,$0006 AF:0070 BC:c0c8 DE:0100 HL:c0d8 SP:dfb5
4c6a  add  hl,bc AF:0070 BC:c0c8 DE:0100 HL:0006 SP:dfb5
4c6b  ld   e,(hl) AF:0000 BC:c0c8 DE:0100 HL:c0ce SP:dfb5
4c6c  inc  hl AF:0000 BC:c0c8 DE:0155 HL:c0ce SP:dfb5
4c6d  ld   d,(hl) AF:0000 BC:c0c8 DE:0155 HL:c0cf SP:dfb5
4c6e  ld   hl,$0002 AF:0000 BC:c0c8 DE:4655 HL:c0cf SP:dfb5
4c71  add  hl,bc AF:0000 BC:c0c8 DE:4655 HL:0002 SP:dfb5
4c72  ld   a,(hl) AF:0000 BC:c0c8 DE:4655 HL:c0ca SP:dfb5
4c73  call $3cbb AF:3c00 BC:c0c8 DE:4655 HL:c0ca SP:dfb5
3cbb  ld   ($2000),a AF:3c00 BC:c0c8 DE:4655 HL:c0ca SP:dfb3
3cbe  ld   ($ff98),a AF:3c00 BC:c0c8 DE:4655 HL:c0ca SP:dfb3
3cc0  ld   a,(de) AF:3c00 BC:c0c8 DE:4655 HL:c0ca SP:dfb3
3cc1  push af AF:0700 BC:c0c8 DE:4655 HL:c0ca SP:dfb3
3cc2  ld   a,$3a AF:0700 BC:c0c8 DE:4655 HL:c0ca SP:dfb1
03ae  push af AF:0700 BC:c0c8 DE:4655 HL:c0ca SP:dfaf
03af  ld   a,($ffd0) AF:0700 BC:c0c8 DE:4655 HL:c0ca SP:dfad
03b1  and  a,a AF:0000 BC:c0c8 DE:4655 HL:c0ca SP:dfad
03b2  jr   z,$03df AF:00a0 BC:c0c8 DE:4655 HL:c0ca SP:dfad
03df  pop  af AF:00a0 BC:c0c8 DE:4655 HL:c0ca SP:dfad
03e0  reti AF:0700 BC:c0c8 DE:4655 HL:c0ca SP:dfaf
3cc2  ld   a,$3a AF:0700 BC:c0c8 DE:4655 HL:c0ca SP:dfb1
3cc4  ld   ($2000),a AF:3a00 BC:c0c8 DE:4655 HL:c0ca SP:dfb1
3cc7  ld   ($ff98),a AF:3a00 BC:c0c8 DE:4655 HL:c0ca SP:dfb1
3cc9  pop  af AF:3a00 BC:c0c8 DE:4655 HL:c0ca SP:dfb1
3cca  ret AF:0700 BC:c0c8 DE:4655 HL:c0ca SP:dfb3
4c76  ld   ($c197),a AF:0700 BC:c0c8 DE:4655 HL:c0ca SP:dfb5
4c79  inc  de AF:0700 BC:c0c8 DE:4655 HL:c0ca SP:dfb5
4c7a  ld   hl,$0006 AF:0700 BC:c0c8 DE:4656 HL:c0ca SP:dfb5
4c7d  add  hl,bc AF:0700 BC:c0c8 DE:4656 HL:0006 SP:dfb5
4c7e  ld   (hl),e AF:0700 BC:c0c8 DE:4656 HL:c0ce SP:dfb5
4c7f  inc  hl AF:0700 BC:c0c8 DE:4656 HL:c0ce SP:dfb5
4c80  ld   (hl),d AF:0700 BC:c0c8 DE:4656 HL:c0cf SP:dfb5
4c81  pop  de AF:0700 BC:c0c8 DE:4656 HL:c0cf SP:dfb5
4c82  pop  hl AF:0700 BC:c0c8 DE:0100 HL:c0cf SP:dfb7
4c83  ret AF:0700 BC:c0c8 DE:0100 HL:c0d8 SP:dfb9
491c  ld   hl,$0011 AF:0700 BC:c0c8 DE:0100 HL:c0d8 SP:dfbb
491f  add  hl,bc AF:0700 BC:c0c8 DE:0100 HL:0011 SP:dfbb
4920  ld   (hl),a AF:0700 BC:c0c8 DE:0100 HL:c0d9 SP:dfbb
4921  ret AF:0700 BC:c0c8 DE:0100 HL:c0d9 SP:dfbb
4871  ret AF:0700 BC:c0c8 DE:0100 HL:c0d9 SP:dfbd
4076  call $40b6 AF:0700 BC:c0c8 DE:0100 HL:c0d9 SP:dfbf
40b6  ld   hl,$000e AF:0700 BC:c0c8 DE:0100 HL:c0d9 SP:dfbd
40b9  add  hl,bc AF:0700 BC:c0c8 DE:0100 HL:000e SP:dfbd
40ba  ld   a,(hl) AF:0700 BC:c0c8 DE:0100 HL:c0d6 SP:dfbd
40bb  ld   ($c191),a AF:8000 BC:c0c8 DE:0100 HL:c0d6 SP:dfbd
40be  ld   hl,$000f AF:8000 BC:c0c8 DE:0100 HL:c0d6 SP:dfbd
40c1  add  hl,bc AF:8000 BC:c0c8 DE:0100 HL:000f SP:dfbd
40c2  ld   a,(hl) AF:8000 BC:c0c8 DE:0100 HL:c0d7 SP:dfbd
40c3  ld   ($c192),a AF:9100 BC:c0c8 DE:0100 HL:c0d7 SP:dfbd
40c6  ld   hl,$0010 AF:9100 BC:c0c8 DE:0100 HL:c0d7 SP:dfbd
03ae  push af AF:9100 BC:c0c8 DE:0100 HL:c0d7 SP:dfbb
03af  ld   a,($ffd0) AF:9100 BC:c0c8 DE:0100 HL:c0d7 SP:dfb9
03b1  and  a,a AF:0000 BC:c0c8 DE:0100 HL:c0d7 SP:dfb9
03b2  jr   z,$03df AF:00a0 BC:c0c8 DE:0100 HL:c0d7 SP:dfb9
03df  pop  af AF:00a0 BC:c0c8 DE:0100 HL:c0d7 SP:dfb9
03e0  reti AF:9100 BC:c0c8 DE:0100 HL:c0d7 SP:dfbb
40c6  ld   hl,$0010 AF:9100 BC:c0c8 DE:0100 HL:c0d7 SP:dfbd
40c9  add  hl,bc AF:9100 BC:c0c8 DE:0100 HL:0010 SP:dfbd
40ca  ldi  a,(hl) AF:9100 BC:c0c8 DE:0100 HL:c0d8 SP:dfbd
40cb  ld   ($c193),a AF:c000 BC:c0c8 DE:0100 HL:c0d9 SP:dfbd
40ce  ld   a,(hl) AF:c000 BC:c0c8 DE:0100 HL:c0d9 SP:dfbd
40cf  ld   ($c194),a AF:0700 BC:c0c8 DE:0100 HL:c0d9 SP:dfbd
40d2  ld   a,$3f AF:0700 BC:c0c8 DE:0100 HL:c0d9 SP:dfbd
40d4  ld   ($c195),a AF:3f00 BC:c0c8 DE:0100 HL:c0d9 SP:dfbd
40d7  call $45d8 AF:3f00 BC:c0c8 DE:0100 HL:c0d9 SP:dfbd
45d8  ld   hl,$0004 AF:3f00 BC:c0c8 DE:0100 HL:c0d9 SP:dfbb
45db  add  hl,bc AF:3f00 BC:c0c8 DE:0100 HL:0004 SP:dfbb
45dc  bit  2,(hl) AF:3f00 BC:c0c8 DE:0100 HL:c0cc SP:dfbb
45de  call nz,$4605 AF:3fa0 BC:c0c8 DE:0100 HL:c0cc SP:dfbb
45e1  bit  6,(hl) AF:3fa0 BC:c0c8 DE:0100 HL:c0cc SP:dfbb
45e3  call nz,$472b AF:3fa0 BC:c0c8 DE:0100 HL:c0cc SP:dfbb
45e6  bit  4,(hl) AF:3fa0 BC:c0c8 DE:0100 HL:c0cc SP:dfbb
45e8  call nz,$4713 AF:3fa0 BC:c0c8 DE:0100 HL:c0cc SP:dfbb
45eb  bit  1,(hl) AF:3fa0 BC:c0c8 DE:0100 HL:c0cc SP:dfbb
45ed  call nz,$461b AF:3fa0 BC:c0c8 DE:0100 HL:c0cc SP:dfbb
45f0  bit  0,(hl) AF:3fa0 BC:c0c8 DE:0100 HL:c0cc SP:dfbb
45f2  call nz,$46ad AF:3fa0 BC:c0c8 DE:0100 HL:c0cc SP:dfbb
45f5  bit  5,(hl) AF:3fa0 BC:c0c8 DE:0100 HL:c0cc SP:dfbb
45f7  call nz,$475e AF:3fa0 BC:c0c8 DE:0100 HL:c0cc SP:dfbb
45fa  bit  3,(hl) AF:3fa0 BC:c0c8 DE:0100 HL:c0cc SP:dfbb
45fc  call nz,$46ff AF:3fa0 BC:c0c8 DE:0100 HL:c0cc SP:dfbb
45ff  bit  7,(hl) AF:3fa0 BC:c0c8 DE:0100 HL:c0cc SP:dfbb
4601  call nz,$47bb AF:3fa0 BC:c0c8 DE:0100 HL:c0cc SP:dfbb
4604  ret AF:3fa0 BC:c0c8 DE:0100 HL:c0cc SP:dfbb
40da  call $47f9 AF:3fa0 BC:c0c8 DE:0100 HL:c0cc SP:dfbd
03ae  push af AF:3fa0 BC:c0c8 DE:0100 HL:c0cc SP:dfbb
03af  ld   a,($ffd0) AF:3fa0 BC:c0c8 DE:0100 HL:c0cc SP:dfb9
03b1  and  a,a AF:00a0 BC:c0c8 DE:0100 HL:c0cc SP:dfb9
03b2  jr   z,$03df AF:00a0 BC:c0c8 DE:0100 HL:c0cc SP:dfb9
03df  pop  af AF:00a0 BC:c0c8 DE:0100 HL:c0cc SP:dfb9
03e0  reti AF:3fa0 BC:c0c8 DE:0100 HL:c0cc SP:dfbb
40da  call $47f9 AF:3fa0 BC:c0c8 DE:0100 HL:c0cc SP:dfbd
47f9  ld   hl,$0003 AF:3fa0 BC:c0c8 DE:0100 HL:c0cc SP:dfbb
47fc  add  hl,bc AF:3fa0 BC:c0c8 DE:0100 HL:0003 SP:dfbb
47fd  bit  4,(hl) AF:3f80 BC:c0c8 DE:0100 HL:c0cb SP:dfbb
47ff  ret  z AF:3fa0 BC:c0c8 DE:0100 HL:c0cb SP:dfbb
40dd  call $4839 AF:3fa0 BC:c0c8 DE:0100 HL:c0cb SP:dfbd
4839  ld   a,($c1b4) AF:3fa0 BC:c0c8 DE:0100 HL:c0cb SP:dfbb
483c  and  a,a AF:00a0 BC:c0c8 DE:0100 HL:c0cb SP:dfbb
483d  ret  z AF:00a0 BC:c0c8 DE:0100 HL:c0cb SP:dfbb
40e0  call $42bd AF:00a0 BC:c0c8 DE:0100 HL:c0cb SP:dfbd
42bd  ld   a,($c198) AF:00a0 BC:c0c8 DE:0100 HL:c0cb SP:dfbb
42c0  cp   a,$04 AF:04a0 BC:c0c8 DE:0100 HL:c0cb SP:dfbb
42c2  jr   nc,$42ce AF:04c0 BC:c0c8 DE:0100 HL:c0cb SP:dfbb
42ce  scf AF:04c0 BC:c0c8 DE:0100 HL:c0cb SP:dfbb
42cf  ret AF:0490 BC:c0c8 DE:0100 HL:c0cb SP:dfbb
40e3  jr   nc,$40f3 AF:0490 BC:c0c8 DE:0100 HL:c0cb SP:dfbd
40e5  call $40fa AF:0490 BC:c0c8 DE:0100 HL:c0cb SP:dfbd
40fa  ld   hl,$410b AF:0490 BC:c0c8 DE:0100 HL:c0cb SP:dfbb
40fd  ld   a,($c198) AF:0490 BC:c0c8 DE:0100 HL:410b SP:dfbb
4100  and  a,$07 AF:0490 BC:c0c8 DE:0100 HL:410b SP:dfbb
4102  add  a,a AF:0420 BC:c0c8 DE:0100 HL:410b SP:dfbb
4103  ld   e,a AF:0800 BC:c0c8 DE:0100 HL:410b SP:dfbb
4104  ld   d,$00 AF:0800 BC:c0c8 DE:0108 HL:410b SP:dfbb
4106  add  hl,de AF:0800 BC:c0c8 DE:0008 HL:410b SP:dfbb
4107  ldi  a,(hl) AF:0800 BC:c0c8 DE:0008 HL:4113 SP:dfbb
4108  ld   h,(hl) AF:2100 BC:c0c8 DE:0008 HL:4114 SP:dfbb
4109  ld   l,a AF:2100 BC:c0c8 DE:0008 HL:4114 SP:dfbb
410a  jp   hl AF:2100 BC:c0c8 DE:0008 HL:4121 SP:dfbb
4121  ld   hl,$000c AF:2100 BC:c0c8 DE:0008 HL:4121 SP:dfbb
4124  add  hl,bc AF:2100 BC:c0c8 DE:0008 HL:000c SP:dfbb
03ae  push af AF:2100 BC:c0c8 DE:0008 HL:000c SP:dfb9
03af  ld   a,($ffd0) AF:2100 BC:c0c8 DE:0008 HL:000c SP:dfb7
03b1  and  a,a AF:0000 BC:c0c8 DE:0008 HL:000c SP:dfb7
03b2  jr   z,$03df AF:00a0 BC:c0c8 DE:0008 HL:000c SP:dfb7
03df  pop  af AF:00a0 BC:c0c8 DE:0008 HL:000c SP:dfb7
03e0  reti AF:2100 BC:c0c8 DE:0008 HL:000c SP:dfb9
4124  add  hl,bc AF:2100 BC:c0c8 DE:0008 HL:000c SP:dfbb
4125  bit  3,(hl) AF:2100 BC:c0c8 DE:0008 HL:c0d4 SP:dfbb
4127  jr   z,$412e AF:21a0 BC:c0c8 DE:0008 HL:c0d4 SP:dfbb
412e  bit  5,(hl) AF:21a0 BC:c0c8 DE:0008 HL:c0d4 SP:dfbb
4130  jr   nz,$4146 AF:21a0 BC:c0c8 DE:0008 HL:c0d4 SP:dfbb
4132  bit  4,(hl) AF:21a0 BC:c0c8 DE:0008 HL:c0d4 SP:dfbb
4134  jr   nz,$4152 AF:2120 BC:c0c8 DE:0008 HL:c0d4 SP:dfbb
4152  ld   hl,$c191 AF:2120 BC:c0c8 DE:0008 HL:c0d4 SP:dfbb
4155  ld   a,($c195) AF:2120 BC:c0c8 DE:0008 HL:c191 SP:dfbb
4158  or   a,(hl) AF:3f20 BC:c0c8 DE:0008 HL:c191 SP:dfbb
4159  ld   ($ff11),a AF:bf00 BC:c0c8 DE:0008 HL:c191 SP:dfbb
415b  ld   a,($c192) AF:bf00 BC:c0c8 DE:0008 HL:c191 SP:dfbb
415e  ld   ($ff12),a AF:9100 BC:c0c8 DE:0008 HL:c191 SP:dfbb
4160  ld   a,($c193) AF:9100 BC:c0c8 DE:0008 HL:c191 SP:dfbb
4163  ld   ($ff13),a AF:c000 BC:c0c8 DE:0008 HL:c191 SP:dfbb
4165  ld   a,($c194) AF:c000 BC:c0c8 DE:0008 HL:c191 SP:dfbb
4168  or   a,$80 AF:0700 BC:c0c8 DE:0008 HL:c191 SP:dfbb
416a  ld   ($ff14),a AF:8700 BC:c0c8 DE:0008 HL:c191 SP:dfbb
416c  ret AF:8700 BC:c0c8 DE:0008 HL:c191 SP:dfbb
40e8  ld   hl,$001b AF:8700 BC:c0c8 DE:0008 HL:c191 SP:dfbd
40eb  add  hl,bc AF:8700 BC:c0c8 DE:0008 HL:001b SP:dfbd
40ec  ld   a,($c19a) AF:8700 BC:c0c8 DE:0008 HL:c0e3 SP:dfbd
40ef  or   a,(hl) AF:ee00 BC:c0c8 DE:0008 HL:c0e3 SP:dfbd
40f0  ld   ($c19a),a AF:ff00 BC:c0c8 DE:0008 HL:c0e3 SP:dfbd
40f3  ld   hl,$000c AF:ff00 BC:c0c8 DE:0008 HL:c0e3 SP:dfbd
40f6  add  hl,bc AF:ff00 BC:c0c8 DE:0008 HL:000c SP:dfbd
40f7  xor  a,a AF:ff00 BC:c0c8 DE:0008 HL:c0d4 SP:dfbd
40f8  ld   (hl),a AF:0080 BC:c0c8 DE:0008 HL:c0d4 SP:dfbd
40f9  ret AF:0080 BC:c0c8 DE:0008 HL:c0d4 SP:dfbd
4079  ret AF:0080 BC:c0c8 DE:0008 HL:c0d4 SP:dfbf
404c  ld   hl,$0032 AF:0080 BC:c0c8 DE:0008 HL:c0d4 SP:dfc1
03ae  push af AF:0080 BC:c0c8 DE:0008 HL:c0d4 SP:dfbf
03af  ld   a,($ffd0) AF:0080 BC:c0c8 DE:0008 HL:c0d4 SP:dfbd
03b1  and  a,a AF:0080 BC:c0c8 DE:0008 HL:c0d4 SP:dfbd
03b2  jr   z,$03df AF:00a0 BC:c0c8 DE:0008 HL:c0d4 SP:dfbd
03df  pop  af AF:00a0 BC:c0c8 DE:0008 HL:c0d4 SP:dfbd
03e0  reti AF:0080 BC:c0c8 DE:0008 HL:c0d4 SP:dfbf
404c  ld   hl,$0032 AF:0080 BC:c0c8 DE:0008 HL:c0d4 SP:dfc1
404f  add  hl,bc AF:0080 BC:c0c8 DE:0008 HL:0032 SP:dfc1
4050  ld   c,l AF:0080 BC:c0c8 DE:0008 HL:c0fa SP:dfc1
4051  ld   b,h AF:0080 BC:c0fa DE:0008 HL:c0fa SP:dfc1
4052  ld   a,($c198) AF:0080 BC:c0fa DE:0008 HL:c0fa SP:dfc1
4055  inc  a AF:0480 BC:c0fa DE:0008 HL:c0fa SP:dfc1
4056  ld   ($c198),a AF:0500 BC:c0fa DE:0008 HL:c0fa SP:dfc1
4059  cp   a,$08 AF:0500 BC:c0fa DE:0008 HL:c0fa SP:dfc1
405b  jr   nz,$4041 AF:0570 BC:c0fa DE:0008 HL:c0fa SP:dfc1
4041  ld   hl,$0003 AF:0570 BC:c0fa DE:0008 HL:c0fa SP:dfc1
4044  add  hl,bc AF:0570 BC:c0fa DE:0008 HL:0003 SP:dfc1
4045  bit  0,(hl) AF:0500 BC:c0fa DE:0008 HL:c0fd SP:dfc1
4047  jr   z,$404c AF:05a0 BC:c0fa DE:0008 HL:c0fd SP:dfc1
404c  ld   hl,$0032 AF:05a0 BC:c0fa DE:0008 HL:c0fd SP:dfc1
404f  add  hl,bc AF:05a0 BC:c0fa DE:0008 HL:0032 SP:dfc1
4050  ld   c,l AF:0580 BC:c0fa DE:0008 HL:c12c SP:dfc1
4051  ld   b,h AF:0580 BC:c02c DE:0008 HL:c12c SP:dfc1
4052  ld   a,($c198) AF:0580 BC:c12c DE:0008 HL:c12c SP:dfc1
4055  inc  a AF:0580 BC:c12c DE:0008 HL:c12c SP:dfc1
4056  ld   ($c198),a AF:0600 BC:c12c DE:0008 HL:c12c SP:dfc1
4059  cp   a,$08 AF:0600 BC:c12c DE:0008 HL:c12c SP:dfc1
405b  jr   nz,$4041 AF:0670 BC:c12c DE:0008 HL:c12c SP:dfc1
4041  ld   hl,$0003 AF:0670 BC:c12c DE:0008 HL:c12c SP:dfc1
4044  add  hl,bc AF:0670 BC:c12c DE:0008 HL:0003 SP:dfc1
4045  bit  0,(hl) AF:0600 BC:c12c DE:0008 HL:c12f SP:dfc1
4047  jr   z,$404c AF:06a0 BC:c12c DE:0008 HL:c12f SP:dfc1
404c  ld   hl,$0032 AF:06a0 BC:c12c DE:0008 HL:c12f SP:dfc1
404f  add  hl,bc AF:06a0 BC:c12c DE:0008 HL:0032 SP:dfc1
4050  ld   c,l AF:0680 BC:c12c DE:0008 HL:c15e SP:dfc1
4051  ld   b,h AF:0680 BC:c15e DE:0008 HL:c15e SP:dfc1
4052  ld   a,($c198) AF:0680 BC:c15e DE:0008 HL:c15e SP:dfc1
4055  inc  a AF:0680 BC:c15e DE:0008 HL:c15e SP:dfc1
4056  ld   ($c198),a AF:0700 BC:c15e DE:0008 HL:c15e SP:dfc1
4059  cp   a,$08 AF:0700 BC:c15e DE:0008 HL:c15e SP:dfc1
405b  jr   nz,$4041 AF:0770 BC:c15e DE:0008 HL:c15e SP:dfc1
4041  ld   hl,$0003 AF:0770 BC:c15e DE:0008 HL:c15e SP:dfc1
03ae  push af AF:0770 BC:c15e DE:0008 HL:c15e SP:dfbf
03af  ld   a,($ffd0) AF:0770 BC:c15e DE:0008 HL:c15e SP:dfbd
03b1  and  a,a AF:0070 BC:c15e DE:0008 HL:c15e SP:dfbd
03b2  jr   z,$03df AF:00a0 BC:c15e DE:0008 HL:c15e SP:dfbd
03df  pop  af AF:00a0 BC:c15e DE:0008 HL:c15e SP:dfbd
03e0  reti AF:0770 BC:c15e DE:0008 HL:c15e SP:dfbf
4041  ld   hl,$0003 AF:0770 BC:c15e DE:0008 HL:c15e SP:dfc1
4044  add  hl,bc AF:0770 BC:c15e DE:0008 HL:0003 SP:dfc1
4045  bit  0,(hl) AF:0700 BC:c15e DE:0008 HL:c161 SP:dfc1
4047  jr   z,$404c AF:07a0 BC:c15e DE:0008 HL:c161 SP:dfc1
404c  ld   hl,$0032 AF:07a0 BC:c15e DE:0008 HL:c161 SP:dfc1
404f  add  hl,bc AF:07a0 BC:c15e DE:0008 HL:0032 SP:dfc1
4050  ld   c,l AF:0780 BC:c15e DE:0008 HL:c190 SP:dfc1
4051  ld   b,h AF:0780 BC:c190 DE:0008 HL:c190 SP:dfc1
4052  ld   a,($c198) AF:0780 BC:c190 DE:0008 HL:c190 SP:dfc1
4055  inc  a AF:0780 BC:c190 DE:0008 HL:c190 SP:dfc1
4056  ld   ($c198),a AF:0800 BC:c190 DE:0008 HL:c190 SP:dfc1
4059  cp   a,$08 AF:0800 BC:c190 DE:0008 HL:c190 SP:dfc1
405b  jr   nz,$4041 AF:08c0 BC:c190 DE:0008 HL:c190 SP:dfc1
405d  call $42f0 AF:08c0 BC:c190 DE:0008 HL:c190 SP:dfc1
42f0  call $4352 AF:08c0 BC:c190 DE:0008 HL:c190 SP:dfbf
4352  call $438e AF:08c0 BC:c190 DE:0008 HL:c190 SP:dfbd
438e  ld   hl,$c003 AF:08c0 BC:c190 DE:0008 HL:c190 SP:dfbb
4391  bit  0,(hl) AF:08c0 BC:c190 DE:0008 HL:c003 SP:dfbb
4393  jr   z,$439d AF:0820 BC:c190 DE:0008 HL:c003 SP:dfbb
4395  ld   hl,$c015 AF:0820 BC:c190 DE:0008 HL:c003 SP:dfbb
4398  ld   a,(hl) AF:0820 BC:c190 DE:0008 HL:c015 SP:dfbb
4399  cp   a,$01 AF:0120 BC:c190 DE:0008 HL:c015 SP:dfbb
439b  jr   nz,$43cc AF:01c0 BC:c190 DE:0008 HL:c015 SP:dfbb
439d  ld   hl,$c035 AF:01c0 BC:c190 DE:0008 HL:c015 SP:dfbb
43a0  bit  0,(hl) AF:01c0 BC:c190 DE:0008 HL:c035 SP:dfbb
43a2  jr   z,$43ac AF:0120 BC:c190 DE:0008 HL:c035 SP:dfbb
43a4  ld   hl,$c047 AF:0120 BC:c190 DE:0008 HL:c035 SP:dfbb
43a7  ld   a,(hl) AF:0120 BC:c190 DE:0008 HL:c047 SP:dfbb
43a8  cp   a,$01 AF:0120 BC:c190 DE:0008 HL:c047 SP:dfbb
43aa  jr   nz,$43cc AF:01c0 BC:c190 DE:0008 HL:c047 SP:dfbb
43ac  ld   hl,$c067 AF:01c0 BC:c190 DE:0008 HL:c047 SP:dfbb
43af  bit  0,(hl) AF:01c0 BC:c190 DE:0008 HL:c067 SP:dfbb
03ae  push af AF:01c0 BC:c190 DE:0008 HL:c067 SP:dfb9
03af  ld   a,($ffd0) AF:01c0 BC:c190 DE:0008 HL:c067 SP:dfb7
03b1  and  a,a AF:00c0 BC:c190 DE:0008 HL:c067 SP:dfb7
03b2  jr   z,$03df AF:00a0 BC:c190 DE:0008 HL:c067 SP:dfb7
03df  pop  af AF:00a0 BC:c190 DE:0008 HL:c067 SP:dfb7
03e0  reti AF:01c0 BC:c190 DE:0008 HL:c067 SP:dfb9
43af  bit  0,(hl) AF:01c0 BC:c190 DE:0008 HL:c067 SP:dfbb
43b1  jr   z,$43bb AF:0120 BC:c190 DE:0008 HL:c067 SP:dfbb
43b3  ld   hl,$c079 AF:0120 BC:c190 DE:0008 HL:c067 SP:dfbb
43b6  ld   a,(hl) AF:0120 BC:c190 DE:0008 HL:c079 SP:dfbb
43b7  cp   a,$01 AF:1e20 BC:c190 DE:0008 HL:c079 SP:dfbb
43b9  jr   nz,$43cc AF:1e40 BC:c190 DE:0008 HL:c079 SP:dfbb
43cc  scf AF:1e40 BC:c190 DE:0008 HL:c079 SP:dfbb
43cd  ret AF:1e10 BC:c190 DE:0008 HL:c079 SP:dfbb
4355  ret  c AF:1e10 BC:c190 DE:0008 HL:c079 SP:dfbd
42f3  call $4307 AF:1e10 BC:c190 DE:0008 HL:c079 SP:dfbf
4307  ld   a,($c1a4) AF:1e10 BC:c190 DE:0008 HL:c079 SP:dfbd
430a  bit  7,a AF:0010 BC:c190 DE:0008 HL:c079 SP:dfbd
430c  ret  z AF:00b0 BC:c190 DE:0008 HL:c079 SP:dfbd
42f6  call $43ce AF:00b0 BC:c190 DE:0008 HL:c079 SP:dfbf
43ce  ld   a,($c1a5) AF:00b0 BC:c190 DE:0008 HL:c079 SP:dfbd
43d1  and  a,a AF:00b0 BC:c190 DE:0008 HL:c079 SP:dfbd
43d2  ret  z AF:00a0 BC:c190 DE:0008 HL:c079 SP:dfbd
42f9  call $441d AF:00a0 BC:c190 DE:0008 HL:c079 SP:dfbf
441d  ld   a,($c1a9) AF:00a0 BC:c190 DE:0008 HL:c079 SP:dfbd
4420  and  a,a AF:00a0 BC:c190 DE:0008 HL:c079 SP:dfbd
4421  ret  z AF:00a0 BC:c190 DE:0008 HL:c079 SP:dfbd
42fc  ld   a,($c199) AF:00a0 BC:c190 DE:0008 HL:c079 SP:dfbf
42ff  ld   ($ff24),a AF:77a0 BC:c190 DE:0008 HL:c079 SP:dfbf
4301  ld   a,($c19a) AF:77a0 BC:c190 DE:0008 HL:c079 SP:dfbf
4304  ld   ($ff25),a AF:ffa0 BC:c190 DE:0008 HL:c079 SP:dfbf
4306  ret AF:ffa0 BC:c190 DE:0008 HL:c079 SP:dfbf
03ae  push af AF:ffa0 BC:c190 DE:0008 HL:c079 SP:dfbd
03af  ld   a,($ffd0) AF:ffa0 BC:c190 DE:0008 HL:c079 SP:dfbb
03b1  and  a,a AF:00a0 BC:c190 DE:0008 HL:c079 SP:dfbb
03b2  jr   z,$03df AF:00a0 BC:c190 DE:0008 HL:c079 SP:dfbb
03df  pop  af AF:00a0 BC:c190 DE:0008 HL:c079 SP:dfbb
03e0  reti AF:ffa0 BC:c190 DE:0008 HL:c079 SP:dfbd
4306  ret AF:ffa0 BC:c190 DE:0008 HL:c079 SP:dfbf
4060  ret AF:ffa0 BC:c190 DE:0008 HL:c079 SP:dfc1
3cb0  pop  af AF:ffa0 BC:c190 DE:0008 HL:c079 SP:dfc3
3cb1  ld   ($2000),a AF:0480 BC:c190 DE:0008 HL:c079 SP:dfc5
3cb4  ld   ($ff98),a AF:0480 BC:c190 DE:0008 HL:c079 SP:dfc5
3cb6  pop  af AF:0480 BC:c190 DE:0008 HL:c079 SP:dfc5
3cb7  pop  bc AF:0280 BC:c190 DE:0008 HL:c079 SP:dfc7
3cb8  pop  de AF:0280 BC:0000 DE:0008 HL:c079 SP:dfc9
3cb9  pop  hl AF:0280 BC:0000 DE:0101 HL:c079 SP:dfcb
3cba  ret AF:0280 BC:0000 DE:0101 HL:ff40 SP:dfcd
01e7  ld   a,($ce3b) AF:0280 BC:0000 DE:0101 HL:ff40 SP:dfcf
01ea  call $3286 AF:0480 BC:0000 DE:0101 HL:ff40 SP:dfcf
3286  ld   ($ff98),a AF:0480 BC:0000 DE:0101 HL:ff40 SP:dfcd
3288  ld   ($2000),a AF:0480 BC:0000 DE:0101 HL:ff40 SP:dfcd
328b  ret AF:0480 BC:0000 DE:0101 HL:ff40 SP:dfcd
01ed  di AF:0480 BC:0000 DE:0101 HL:ff40 SP:dfcf
01ee  xor  a,a AF:0480 BC:0000 DE:0101 HL:ff40 SP:dfcf
01ef  ld   ($ff0f),a AF:0080 BC:0000 DE:0101 HL:ff40 SP:dfcf
01f1  ld   a,$1f AF:0080 BC:0000 DE:0101 HL:ff40 SP:dfcf
01f3  ld   ($ffff),a AF:1f80 BC:0000 DE:0101 HL:ff40 SP:dfcf
01f5  ret AF:1f80 BC:0000 DE:0101 HL:ff40 SP:dfcf
0168  pop  hl AF:1f80 BC:0000 DE:0101 HL:ff40 SP:dfd1
0169  pop  de AF:1f80 BC:0000 DE:0101 HL:c407 SP:dfd3
016a  pop  bc AF:1f80 BC:0000 DE:0014 HL:c407 SP:dfd5
016b  pop  af AF:1f80 BC:0003 DE:0014 HL:c407 SP:dfd7
016c  reti AF:0120 BC:0003 DE:0014 HL:c407 SP:dfd9
031d  ld   a,($cc33) AF:0120 BC:0003 DE:0014 HL:c407 SP:dfdb
0320  and  a,a AF:0020 BC:0003 DE:0014 HL:c407 SP:dfdb
03ae  push af AF:0020 BC:0003 DE:0014 HL:c407 SP:dfd9
03af  ld   a,($ffd0) AF:0020 BC:0003 DE:0014 HL:c407 SP:dfd7
03b1  and  a,a AF:0020 BC:0003 DE:0014 HL:c407 SP:dfd7
03b2  jr   z,$03df AF:00a0 BC:0003 DE:0014 HL:c407 SP:dfd7
03df  pop  af AF:00a0 BC:0003 DE:0014 HL:c407 SP:dfd7
03e0  reti AF:0020 BC:0003 DE:0014 HL:c407 SP:dfd9
0320  and  a,a AF:0020 BC:0003 DE:0014 HL:c407 SP:dfdb
0321  jr   nz,$031c AF:00a0 BC:0003 DE:0014 HL:c407 SP:dfdb
0323  ret AF:00a0 BC:0003 DE:0014 HL:c407 SP:dfdb
0327  dec  c AF:00a0 BC:0003 DE:0014 HL:c407 SP:dfdd
0328  jr   nz,$0324 AF:0040 BC:0002 DE:0014 HL:c407 SP:dfdd
0324  call $0317 AF:0040 BC:0002 DE:0014 HL:c407 SP:dfdd
0317  ld   a,$01 AF:0040 BC:0002 DE:0014 HL:c407 SP:dfdb
0319  ld   ($cc33),a AF:0140 BC:0002 DE:0014 HL:c407 SP:dfdb
031c  halt AF:0140 BC:0002 DE:0014 HL:c407 SP:dfdb
031d  ld   a,($cc33) AF:0140 BC:0002 DE:0014 HL:c407 SP:dfdb
03ae  push af AF:0140 BC:0002 DE:0014 HL:c407 SP:dfd9
03af  ld   a,($ffd0) AF:0140 BC:0002 DE:0014 HL:c407 SP:dfd7
03b1  and  a,a AF:0040 BC:0002 DE:0014 HL:c407 SP:dfd7
03b2  jr   z,$03df AF:00a0 BC:0002 DE:0014 HL:c407 SP:dfd7
03df  pop  af AF:00a0 BC:0002 DE:0014 HL:c407 SP:dfd7
03e0  reti AF:0140 BC:0002 DE:0014 HL:c407 SP:dfd9
031d  ld   a,($cc33) AF:0140 BC:0002 DE:0014 HL:c407 SP:dfdb
0320  and  a,a AF:0140 BC:0002 DE:0014 HL:c407 SP:dfdb
0321  jr   nz,$031c AF:0120 BC:0002 DE:0014 HL:c407 SP:dfdb
031c  halt AF:0120 BC:0002 DE:0014 HL:c407 SP:dfdb
031d  ld   a,($cc33) AF:0120 BC:0002 DE:0014 HL:c407 SP:dfdb
03ae  push af AF:0120 BC:0002 DE:0014 HL:c407 SP:dfd9
03af  ld   a,($ffd0) AF:0120 BC:0002 DE:0014 HL:c407 SP:dfd7
03b1  and  a,a AF:0020 BC:0002 DE:0014 HL:c407 SP:dfd7
03b2  jr   z,$03df AF:00a0 BC:0002 DE:0014 HL:c407 SP:dfd7
03df  pop  af AF:00a0 BC:0002 DE:0014 HL:c407 SP:dfd7
03e0  reti AF:0120 BC:0002 DE:0014 HL:c407 SP:dfd9
031d  ld   a,($cc33) AF:0120 BC:0002 DE:0014 HL:c407 SP:dfdb
0320  and  a,a AF:0120 BC:0002 DE:0014 HL:c407 SP:dfdb
0321  jr   nz,$031c AF:0120 BC:0002 DE:0014 HL:c407 SP:dfdb
031c  halt AF:0120 BC:0002 DE:0014 HL:c407 SP:dfdb
031d  ld   a,($cc33) AF:0120 BC:0002 DE:0014 HL:c407 SP:dfdb
03ae  push af AF:0120 BC:0002 DE:0014 HL:c407 SP:dfd9
03af  ld   a,($ffd0) AF:0120 BC:0002 DE:0014 HL:c407 SP:dfd7
03b1  and  a,a AF:0020 BC:0002 DE:0014 HL:c407 SP:dfd7
03b2  jr   z,$03df AF:00a0 BC:0002 DE:0014 HL:c407 SP:dfd7
03df  pop  af AF:00a0 BC:0002 DE:0014 HL:c407 SP:dfd7
03e0  reti AF:0120 BC:0002 DE:0014 HL:c407 SP:dfd9
031d  ld   a,($cc33) AF:0120 BC:0002 DE:0014 HL:c407 SP:dfdb
0320  and  a,a AF:0120 BC:0002 DE:0014 HL:c407 SP:dfdb
0321  jr   nz,$031c AF:0120 BC:0002 DE:0014 HL:c407 SP:dfdb
031c  halt AF:0120 BC:0002 DE:0014 HL:c407 SP:dfdb
031d  ld   a,($cc33) AF:0120 BC:0002 DE:0014 HL:c407 SP:dfdb
03ae  push af AF:0120 BC:0002 DE:0014 HL:c407 SP:dfd9
03af  ld   a,($ffd0) AF:0120 BC:0002 DE:0014 HL:c407 SP:dfd7
03b1  and  a,a AF:0020 BC:0002 DE:0014 HL:c407 SP:dfd7
03b2  jr   z,$03df AF:00a0 BC:0002 DE:0014 HL:c407 SP:dfd7
03df  pop  af AF:00a0 BC:0002 DE:0014 HL:c407 SP:dfd7
03e0  reti AF:0120 BC:0002 DE:0014 HL:c407 SP:dfd9
031d  ld   a,($cc33) AF:0120 BC:0002 DE:0014 HL:c407 SP:dfdb
0320  and  a,a AF:0120 BC:0002 DE:0014 HL:c407 SP:dfdb
0321  jr   nz,$031c AF:0120 BC:0002 DE:0014 HL:c407 SP:dfdb
031c  halt AF:0120 BC:0002 DE:0014 HL:c407 SP:dfdb
031d  ld   a,($cc33) AF:0120 BC:0002 DE:0014 HL:c407 SP:dfdb
03ae  push af AF:0120 BC:0002 DE:0014 HL:c407 SP:dfd9
03af  ld   a,($ffd0) AF:0120 BC:0002 DE:0014 HL:c407 SP:dfd7
03b1  and  a,a AF:0020 BC:0002 DE:0014 HL:c407 SP:dfd7
03b2  jr   z,$03df AF:00a0 BC:0002 DE:0014 HL:c407 SP:dfd7
03df  pop  af AF:00a0 BC:0002 DE:0014 HL:c407 SP:dfd7
03e0  reti AF:0120 BC:0002 DE:0014 HL:c407 SP:dfd9
031d  ld   a,($cc33) AF:0120 BC:0002 DE:0014 HL:c407 SP:dfdb
0320  and  a,a AF:0120 BC:0002 DE:0014 HL:c407 SP:dfdb
0321  jr   nz,$031c AF:0120 BC:0002 DE:0014 HL:c407 SP:dfdb
031c  halt AF:0120 BC:0002 DE:0014 HL:c407 SP:dfdb
031d  ld   a,($cc33) AF:0120 BC:0002 DE:0014 HL:c407 SP:dfdb
03ae  push af AF:0120 BC:0002 DE:0014 HL:c407 SP:dfd9
03af  ld   a,($ffd0) AF:0120 BC:0002 DE:0014 HL:c407 SP:dfd7
03b1  and  a,a AF:0020 BC:0002 DE:0014 HL:c407 SP:dfd7
03b2  jr   z,$03df AF:00a0 BC:0002 DE:0014 HL:c407 SP:dfd7
03df  pop  af AF:00a0 BC:0002 DE:0014 HL:c407 SP:dfd7
03e0  reti AF:0120 BC:0002 DE:0014 HL:c407 SP:dfd9
031d  ld   a,($cc33) AF:0120 BC:0002 DE:0014 HL:c407 SP:dfdb
0320  and  a,a AF:0120 BC:0002 DE:0014 HL:c407 SP:dfdb
0321  jr   nz,$031c AF:0120 BC:0002 DE:0014 HL:c407 SP:dfdb
031c  halt AF:0120 BC:0002 DE:0014 HL:c407 SP:dfdb
031d  ld   a,($cc33) AF:0120 BC:0002 DE:0014 HL:c407 SP:dfdb
03ae  push af AF:0120 BC:0002 DE:0014 HL:c407 SP:dfd9
03af  ld   a,($ffd0) AF:0120 BC:0002 DE:0014 HL:c407 SP:dfd7
03b1  and  a,a AF:0020 BC:0002 DE:0014 HL:c407 SP:dfd7
03b2  jr   z,$03df AF:00a0 BC:0002 DE:0014 HL:c407 SP:dfd7
03df  pop  af AF:00a0 BC:0002 DE:0014 HL:c407 SP:dfd7
03e0  reti AF:0120 BC:0002 DE:0014 HL:c407 SP:dfd9
031d  ld   a,($cc33) AF:0120 BC:0002 DE:0014 HL:c407 SP:dfdb
0320  and  a,a AF:0120 BC:0002 DE:0014 HL:c407 SP:dfdb
0321  jr   nz,$031c AF:0120 BC:0002 DE:0014 HL:c407 SP:dfdb
031c  halt AF:0120 BC:0002 DE:0014 HL:c407 SP:dfdb
031d  ld   a,($cc33) AF:0120 BC:0002 DE:0014 HL:c407 SP:dfdb
03ae  push af AF:0120 BC:0002 DE:0014 HL:c407 SP:dfd9
03af  ld   a,($ffd0) AF:0120 BC:0002 DE:0014 HL:c407 SP:dfd7
03b1  and  a,a AF:0020 BC:0002 DE:0014 HL:c407 SP:dfd7
03b2  jr   z,$03df AF:00a0 BC:0002 DE:0014 HL:c407 SP:dfd7
03df  pop  af AF:00a0 BC:0002 DE:0014 HL:c407 SP:dfd7
03e0  reti AF:0120 BC:0002 DE:0014 HL:c407 SP:dfd9
031d  ld   a,($cc33) AF:0120 BC:0002 DE:0014 HL:c407 SP:dfdb
0320  and  a,a AF:0120 BC:0002 DE:0014 HL:c407 SP:dfdb
0321  jr   nz,$031c AF:0120 BC:0002 DE:0014 HL:c407 SP:dfdb
031c  halt AF:0120 BC:0002 DE:0014 HL:c407 SP:dfdb
031d  ld   a,($cc33) AF:0120 BC:0002 DE:0014 HL:c407 SP:dfdb
03ae  push af AF:0120 BC:0002 DE:0014 HL:c407 SP:dfd9
03af  ld   a,($ffd0) AF:0120 BC:0002 DE:0014 HL:c407 SP:dfd7
03b1  and  a,a AF:0020 BC:0002 DE:0014 HL:c407 SP:dfd7
03b2  jr   z,$03df AF:00a0 BC:0002 DE:0014 HL:c407 SP:dfd7
03df  pop  af AF:00a0 BC:0002 DE:0014 HL:c407 SP:dfd7
03e0  reti AF:0120 BC:0002 DE:0014 HL:c407 SP:dfd9
031d  ld   a,($cc33) AF:0120 BC:0002 DE:0014 HL:c407 SP:dfdb
0320  and  a,a AF:0120 BC:0002 DE:0014 HL:c407 SP:dfdb
0321  jr   nz,$031c AF:0120 BC:0002 DE:0014 HL:c407 SP:dfdb
031c  halt AF:0120 BC:0002 DE:0014 HL:c407 SP:dfdb
031d  ld   a,($cc33) AF:0120 BC:0002 DE:0014 HL:c407 SP:dfdb
03ae  push af AF:0120 BC:0002 DE:0014 HL:c407 SP:dfd9
03af  ld   a,($ffd0) AF:0120 BC:0002 DE:0014 HL:c407 SP:dfd7
03b1  and  a,a AF:0020 BC:0002 DE:0014 HL:c407 SP:dfd7
03b2  jr   z,$03df AF:00a0 BC:0002 DE:0014 HL:c407 SP:dfd7
03df  pop  af AF:00a0 BC:0002 DE:0014 HL:c407 SP:dfd7
03e0  reti AF:0120 BC:0002 DE:0014 HL:c407 SP:dfd9
031d  ld   a,($cc33) AF:0120 BC:0002 DE:0014 HL:c407 SP:dfdb
0320  and  a,a AF:0120 BC:0002 DE:0014 HL:c407 SP:dfdb
0321  jr   nz,$031c AF:0120 BC:0002 DE:0014 HL:c407 SP:dfdb
031c  halt AF:0120 BC:0002 DE:0014 HL:c407 SP:dfdb
031d  ld   a,($cc33) AF:0120 BC:0002 DE:0014 HL:c407 SP:dfdb
03ae  push af AF:0120 BC:0002 DE:0014 HL:c407 SP:dfd9
03af  ld   a,($ffd0) AF:0120 BC:0002 DE:0014 HL:c407 SP:dfd7
03b1  and  a,a AF:0020 BC:0002 DE:0014 HL:c407 SP:dfd7
03b2  jr   z,$03df AF:00a0 BC:0002 DE:0014 HL:c407 SP:dfd7
03df  pop  af AF:00a0 BC:0002 DE:0014 HL:c407 SP:dfd7
03e0  reti AF:0120 BC:0002 DE:0014 HL:c407 SP:dfd9
031d  ld   a,($cc33) AF:0120 BC:0002 DE:0014 HL:c407 SP:dfdb
0320  and  a,a AF:0120 BC:0002 DE:0014 HL:c407 SP:dfdb
0321  jr   nz,$031c AF:0120 BC:0002 DE:0014 HL:c407 SP:dfdb
031c  halt AF:0120 BC:0002 DE:0014 HL:c407 SP:dfdb
031d  ld   a,($cc33) AF:0120 BC:0002 DE:0014 HL:c407 SP:dfdb
03ae  push af AF:0120 BC:0002 DE:0014 HL:c407 SP:dfd9
03af  ld   a,($ffd0) AF:0120 BC:0002 DE:0014 HL:c407 SP:dfd7
03b1  and  a,a AF:0020 BC:0002 DE:0014 HL:c407 SP:dfd7
03b2  jr   z,$03df AF:00a0 BC:0002 DE:0014 HL:c407 SP:dfd7
03df  pop  af AF:00a0 BC:0002 DE:0014 HL:c407 SP:dfd7
03e0  reti AF:0120 BC:0002 DE:0014 HL:c407 SP:dfd9
031d  ld   a,($cc33) AF:0120 BC:0002 DE:0014 HL:c407 SP:dfdb
0320  and  a,a AF:0120 BC:0002 DE:0014 HL:c407 SP:dfdb
0321  jr   nz,$031c AF:0120 BC:0002 DE:0014 HL:c407 SP:dfdb
031c  halt AF:0120 BC:0002 DE:0014 HL:c407 SP:dfdb
031d  ld   a,($cc33) AF:0120 BC:0002 DE:0014 HL:c407 SP:dfdb
03ae  push af AF:0120 BC:0002 DE:0014 HL:c407 SP:dfd9
03af  ld   a,($ffd0) AF:0120 BC:0002 DE:0014 HL:c407 SP:dfd7
03b1  and  a,a AF:0020 BC:0002 DE:0014 HL:c407 SP:dfd7
03b2  jr   z,$03df AF:00a0 BC:0002 DE:0014 HL:c407 SP:dfd7
03df  pop  af AF:00a0 BC:0002 DE:0014 HL:c407 SP:dfd7
03e0  reti AF:0120 BC:0002 DE:0014 HL:c407 SP:dfd9
031d  ld   a,($cc33) AF:0120 BC:0002 DE:0014 HL:c407 SP:dfdb
0320  and  a,a AF:0120 BC:0002 DE:0014 HL:c407 SP:dfdb
0321  jr   nz,$031c AF:0120 BC:0002 DE:0014 HL:c407 SP:dfdb
031c  halt AF:0120 BC:0002 DE:0014 HL:c407 SP:dfdb
031d  ld   a,($cc33) AF:0120 BC:0002 DE:0014 HL:c407 SP:dfdb
03ae  push af AF:0120 BC:0002 DE:0014 HL:c407 SP:dfd9
03af  ld   a,($ffd0) AF:0120 BC:0002 DE:0014 HL:c407 SP:dfd7
03b1  and  a,a AF:0020 BC:0002 DE:0014 HL:c407 SP:dfd7
03b2  jr   z,$03df AF:00a0 BC:0002 DE:0014 HL:c407 SP:dfd7
03df  pop  af AF:00a0 BC:0002 DE:0014 HL:c407 SP:dfd7
03e0  reti AF:0120 BC:0002 DE:0014 HL:c407 SP:dfd9
031d  ld   a,($cc33) AF:0120 BC:0002 DE:0014 HL:c407 SP:dfdb
0320  and  a,a AF:0120 BC:0002 DE:0014 HL:c407 SP:dfdb
0321  jr   nz,$031c AF:0120 BC:0002 DE:0014 HL:c407 SP:dfdb
031c  halt AF:0120 BC:0002 DE:0014 HL:c407 SP:dfdb
031d  ld   a,($cc33) AF:0120 BC:0002 DE:0014 HL:c407 SP:dfdb
03ae  push af AF:0120 BC:0002 DE:0014 HL:c407 SP:dfd9
03af  ld   a,($ffd0) AF:0120 BC:0002 DE:0014 HL:c407 SP:dfd7
03b1  and  a,a AF:0020 BC:0002 DE:0014 HL:c407 SP:dfd7
03b2  jr   z,$03df AF:00a0 BC:0002 DE:0014 HL:c407 SP:dfd7
03df  pop  af AF:00a0 BC:0002 DE:0014 HL:c407 SP:dfd7
03e0  reti AF:0120 BC:0002 DE:0014 HL:c407 SP:dfd9
031d  ld   a,($cc33) AF:0120 BC:0002 DE:0014 HL:c407 SP:dfdb
0320  and  a,a AF:0120 BC:0002 DE:0014 HL:c407 SP:dfdb
0321  jr   nz,$031c AF:0120 BC:0002 DE:0014 HL:c407 SP:dfdb
031c  halt AF:0120 BC:0002 DE:0014 HL:c407 SP:dfdb
031d  ld   a,($cc33) AF:0120 BC:0002 DE:0014 HL:c407 SP:dfdb
03ae  push af AF:0120 BC:0002 DE:0014 HL:c407 SP:dfd9
03af  ld   a,($ffd0) AF:0120 BC:0002 DE:0014 HL:c407 SP:dfd7
03b1  and  a,a AF:0020 BC:0002 DE:0014 HL:c407 SP:dfd7
03b2  jr   z,$03df AF:00a0 BC:0002 DE:0014 HL:c407 SP:dfd7
03df  pop  af AF:00a0 BC:0002 DE:0014 HL:c407 SP:dfd7
03e0  reti AF:0120 BC:0002 DE:0014 HL:c407 SP:dfd9
031d  ld   a,($cc33) AF:0120 BC:0002 DE:0014 HL:c407 SP:dfdb
0320  and  a,a AF:0120 BC:0002 DE:0014 HL:c407 SP:dfdb
0321  jr   nz,$031c AF:0120 BC:0002 DE:0014 HL:c407 SP:dfdb
031c  halt AF:0120 BC:0002 DE:0014 HL:c407 SP:dfdb
